(dp1
V344
p2
(dp3
S'index'
p4
g2
sS'en_name'
p5
VReverse String
p6
sS'level'
p7
V\u7b80\u5355
p8
sS'percent'
p9
V61.9%
p10
sS'ch_name'
p11
V\u53cd\u8f6c\u5b57\u7b26\u4e32
p12
sS'path'
p13
Vreverse-string
p14
ssV345
p15
(dp16
g4
g15
sg5
VReverse Vowels of a String
p17
sg7
V\u7b80\u5355
p18
sg9
V40.1%
p19
sg11
V\u53cd\u8f6c\u5b57\u7b26\u4e32\u4e2d\u7684\u5143\u97f3\u5b57\u6bcd
p20
sg13
Vreverse-vowels-of-a-string
p21
ssV347
p22
(dp23
g4
g22
sg5
VTop K Frequent Elements
p24
sg7
V\u4e2d\u7b49
p25
sg9
V47.6%
p26
sg11
V\u524dK\u4e2a\u9ad8\u9891\u5143\u7d20
p27
sg13
Vtop-k-frequent-elements
p28
ssV341
p29
(dp30
g4
g29
sg5
VFlatten Nested List Iterator
p31
sg7
V\u4e2d\u7b49
p32
sg9
V47.6%
p33
sg11
V\u6241\u5e73\u5316\u5d4c\u5957\u5217\u8868\u8fed\u4ee3\u5668
p34
sg13
Vflatten-nested-list-iterator
p35
ssV342
p36
(dp37
g4
g36
sg5
VPower of Four
p38
sg7
V\u7b80\u5355
p39
sg9
V41.0%
p40
sg11
V4\u7684\u5e42
p41
sg13
Vpower-of-four
p42
ssV343
p43
(dp44
g4
g43
sg5
VInteger Break
p45
sg7
V\u4e2d\u7b49
p46
sg9
V45.5%
p47
sg11
V\u6574\u6570\u62c6\u5206
p48
sg13
Vinteger-break
p49
ssV810
p50
(dp51
g4
g50
sg5
VChalkboard XOR Game
p52
sg7
V\u56f0\u96be
p53
sg9
V41.1%
p54
sg11
V\u9ed1\u677f\u5f02\u6216\u6e38\u620f
p55
sg13
Vchalkboard-xor-game
p56
ssV811
p57
(dp58
g4
g57
sg5
VSubdomain Visit Count
p59
sg7
V\u7b80\u5355
p60
sg9
V58.5%
p61
sg11
V\u5b50\u57df\u540d\u8bbf\u95ee\u8ba1\u6570
p62
sg13
Vsubdomain-visit-count
p63
ssV812
p64
(dp65
g4
g64
sg5
VLargest Triangle Area
p66
sg7
V\u7b80\u5355
p67
sg9
V49.8%
p68
sg11
V\u6700\u5927\u4e09\u89d2\u5f62\u9762\u79ef
p69
sg13
Vlargest-triangle-area
p70
ssV813
p71
(dp72
g4
g71
sg5
VLargest Sum of Averages
p73
sg7
V\u4e2d\u7b49
p74
sg9
V29.2%
p75
sg11
V\u6700\u5927\u5e73\u5747\u503c\u548c\u7684\u5206\u7ec4
p76
sg13
Vlargest-sum-of-averages
p77
ssV814
p78
(dp79
g4
g78
sg5
VBinary Tree Pruning
p80
sg7
V\u4e2d\u7b49
p81
sg9
V63.6%
p82
sg11
V\u4e8c\u53c9\u6811\u526a\u679d
p83
sg13
Vbinary-tree-pruning
p84
ssV349
p85
(dp86
g4
g85
sg5
VIntersection of Two Arrays
p87
sg7
V\u7b80\u5355
p88
sg9
V46.5%
p89
sg11
V\u4e24\u4e2a\u6570\u7ec4\u7684\u4ea4\u96c6
p90
sg13
Vintersection-of-two-arrays
p91
ssV816
p92
(dp93
g4
g92
sg5
VAmbiguous Coordinates
p94
sg7
V\u4e2d\u7b49
p95
sg9
V45.8%
p96
sg11
V\u6a21\u7cca\u5750\u6807
p97
sg13
Vambiguous-coordinates
p98
ssV817
p99
(dp100
g4
g99
sg5
VLinked List Components
p101
sg7
V\u4e2d\u7b49
p102
sg9
V40.8%
p103
sg11
VLinked List Components
p104
sg13
Vlinked-list-components
p105
ssV595
p106
(dp107
g4
g106
sg5
VBig Countries
p108
sg7
V\u7b80\u5355
p109
sg9
V66.1%
p110
sg11
V\u5927\u7684\u56fd\u5bb6
p111
sg13
Vbig-countries
p112
ssV719
p113
(dp114
g4
g113
sg5
VFind K-th Smallest Pair Distance
p115
sg7
V\u56f0\u96be
p116
sg9
V18.2%
p117
sg11
V\u627e\u51fa\u7b2c k \u5c0f\u7684\u8ddd\u79bb\u5bf9
p118
sg13
Vfind-k-th-smallest-pair-distance
p119
ssV718
p120
(dp121
g4
g120
sg5
VMaximum Length of Repeated Subarray
p122
sg7
V\u4e2d\u7b49
p123
sg9
V38.8%
p124
sg11
V\u6700\u957f\u91cd\u590d\u5b50\u6570\u7ec4
p125
sg13
Vmaximum-length-of-repeated-subarray
p126
ssV717
p127
(dp128
g4
g127
sg5
V1-bit and 2-bit Characters
p129
sg7
V\u7b80\u5355
p130
sg9
V39.7%
p131
sg11
V1\u6bd4\u7279\u4e0e2\u6bd4\u7279\u5b57\u7b26
p132
sg13
V1-bit-and-2-bit-characters
p133
ssV715
p134
(dp135
g4
g134
sg5
VRange Module
p136
sg7
V\u56f0\u96be
p137
sg9
V23.0%
p138
sg11
VRange Module
p139
sg13
Vrange-module
p140
ssV714
p141
(dp142
g4
g141
sg5
VBest Time to Buy and Sell Stock with Transaction Fee
p143
sg7
V\u4e2d\u7b49
p144
sg9
V33.8%
p145
sg11
V\u4e70\u5356\u80a1\u7968\u7684\u6700\u4f73\u65f6\u673a\u542b\u624b\u7eed\u8d39
p146
sg13
Vbest-time-to-buy-and-sell-stock-with-transaction-fee
p147
ssV713
p148
(dp149
g4
g148
sg5
VSubarray Product Less Than K
p150
sg7
V\u4e2d\u7b49
p151
sg9
V28.6%
p152
sg11
V\u4e58\u79ef\u5c0f\u4e8eK\u7684\u5b50\u6570\u7ec4
p153
sg13
Vsubarray-product-less-than-k
p154
ssV712
p155
(dp156
g4
g155
sg5
VMinimum ASCII Delete Sum for Two Strings
p157
sg7
V\u4e2d\u7b49
p158
sg9
V49.7%
p159
sg11
V\u4e24\u4e2a\u5b57\u7b26\u4e32\u7684\u6700\u5c0fASCII\u5220\u9664\u548c
p160
sg13
Vminimum-ascii-delete-sum-for-two-strings
p161
ssV710
p162
(dp163
g4
g162
sg5
VRandom Pick with Blacklist
p164
sg7
V\u56f0\u96be
p165
sg9
V20.3%
p166
sg11
V\u9ed1\u540d\u5355\u4e2d\u7684\u968f\u673a\u6570
p167
sg13
Vrandom-pick-with-blacklist
p168
ssV299
p169
(dp170
g4
g169
sg5
VBulls and Cows
p171
sg7
V\u4e2d\u7b49
p172
sg9
V39.7%
p173
sg11
V\u731c\u6570\u5b57\u6e38\u620f
p174
sg13
Vbulls-and-cows
p175
ssV297
p176
(dp177
g4
g176
sg5
VSerialize and Deserialize Binary Tree
p178
sg7
V\u56f0\u96be
p179
sg9
V31.4%
p180
sg11
V\u4e8c\u53c9\u6811\u7684\u5e8f\u5217\u5316\u4e0e\u53cd\u5e8f\u5217\u5316
p181
sg13
Vserialize-and-deserialize-binary-tree
p182
ssV295
p183
(dp184
g4
g183
sg5
VFind Median from Data Stream
p185
sg7
V\u56f0\u96be
p186
sg9
V28.2%
p187
sg11
V\u6570\u636e\u6d41\u7684\u4e2d\u4f4d\u6570
p188
sg13
Vfind-median-from-data-stream
p189
ssV292
p190
(dp191
g4
g190
sg5
VNim Game
p192
sg7
V\u7b80\u5355
p193
sg9
V61.5%
p194
sg11
VNim\u6e38\u620f
p195
sg13
Vnim-game
p196
ssV290
p197
(dp198
g4
g197
sg5
VWord Pattern
p199
sg7
V\u7b80\u5355
p200
sg9
V34.0%
p201
sg11
V\u5355\u8bcd\u6a21\u5f0f
p202
sg13
Vword-pattern
p203
ssV591
p204
(dp205
g4
g204
sg5
VTag Validator
p206
sg7
V\u56f0\u96be
p207
sg9
V19.8%
p208
sg11
V\u6807\u7b7e\u9a8c\u8bc1\u5668
p209
sg13
Vtag-validator
p210
ssV590
p211
(dp212
g4
g211
sg5
VN-ary Tree Postorder Traversal
p213
sg7
V\u7b80\u5355
p214
sg9
V53.8%
p215
sg11
VN\u53c9\u6811\u7684\u540e\u5e8f\u904d\u5386
p216
sg13
Vn-ary-tree-postorder-traversal
p217
ssV593
p218
(dp219
g4
g218
sg5
VValid Square
p220
sg7
V\u4e2d\u7b49
p221
sg9
V33.6%
p222
sg11
V\u6709\u6548\u7684\u6b63\u65b9\u5f62
p223
sg13
Vvalid-square
p224
ssV592
p225
(dp226
g4
g225
sg5
VFraction Addition and Subtraction
p227
sg7
V\u4e2d\u7b49
p228
sg9
V42.9%
p229
sg11
V\u5206\u6570\u52a0\u51cf\u8fd0\u7b97
p230
sg13
Vfraction-addition-and-subtraction
p231
ssV199
p232
(dp233
g4
g232
sg5
VBinary Tree Right Side View
p234
sg7
V\u4e2d\u7b49
p235
sg9
V46.3%
p236
sg11
V\u4e8c\u53c9\u6811\u7684\u53f3\u89c6\u56fe
p237
sg13
Vbinary-tree-right-side-view
p238
ssV198
p239
(dp240
g4
g239
sg5
VHouse Robber
p241
sg7
V\u7b80\u5355
p242
sg9
V36.8%
p243
sg11
V\u6253\u5bb6\u52ab\u820d
p244
sg13
Vhouse-robber
p245
ssV596
p246
(dp247
g4
g246
sg5
VClasses More Than 5 Students
p248
sg7
V\u7b80\u5355
p249
sg9
V29.2%
p250
sg11
V\u8d85\u8fc75\u540d\u5b66\u751f\u7684\u8bfe
p251
sg13
Vclasses-more-than-5-students
p252
ssV195
p253
(dp254
g4
g253
sg5
VTenth Line
p255
sg7
V\u7b80\u5355
p256
sg9
V33.8%
p257
sg11
V\u7b2c\u5341\u884c
p258
sg13
Vtenth-line
p259
ssV194
p260
(dp261
g4
g260
sg5
VTranspose File
p262
sg7
V\u4e2d\u7b49
p263
sg9
V26.7%
p264
sg11
V\u8f6c\u7f6e\u6587\u4ef6
p265
sg13
Vtranspose-file
p266
ssV197
p267
(dp268
g4
g267
sg5
VRising Temperature
p269
sg7
V\u7b80\u5355
p270
sg9
V31.2%
p271
sg11
V\u4e0a\u5347\u7684\u6e29\u5ea6
p272
sg13
Vrising-temperature
p273
ssV196
p274
(dp275
g4
g274
sg5
VDelete Duplicate Emails
p276
sg7
V\u7b80\u5355
p277
sg9
V40.1%
p278
sg11
V\u5220\u9664\u91cd\u590d\u7684\u7535\u5b50\u90ae\u7bb1
p279
sg13
Vdelete-duplicate-emails
p280
ssV191
p281
(dp282
g4
g281
sg5
VNumber of 1 Bits
p283
sg7
V\u7b80\u5355
p284
sg9
V41.8%
p285
sg11
V\u4f4d1\u7684\u4e2a\u6570
p286
sg13
Vnumber-of-1-bits
p287
ssV190
p288
(dp289
g4
g288
sg5
VReverse Bits
p290
sg7
V\u7b80\u5355
p291
sg9
V28.9%
p292
sg11
V\u98a0\u5012\u4e8c\u8fdb\u5236\u4f4d
p293
sg13
Vreverse-bits
p294
ssV193
p295
(dp296
g4
g295
sg5
VValid Phone Numbers
p297
sg7
V\u7b80\u5355
p298
sg9
V20.9%
p299
sg11
V\u6709\u6548\u7535\u8bdd\u53f7\u7801
p300
sg13
Vvalid-phone-numbers
p301
ssV192
p302
(dp303
g4
g302
sg5
VWord Frequency
p304
sg7
V\u4e2d\u7b49
p305
sg9
V22.3%
p306
sg11
V\u7edf\u8ba1\u8bcd\u9891
p307
sg13
Vword-frequency
p308
ssV273
p309
(dp310
g4
g309
sg5
VInteger to English Words
p311
sg7
V\u56f0\u96be
p312
sg9
V16.4%
p313
sg11
V\u6574\u6570\u8f6c\u6362\u82f1\u6587\u8868\u793a
p314
sg13
Vinteger-to-english-words
p315
ssV274
p316
(dp317
g4
g316
sg5
VH-Index
p318
sg7
V\u4e2d\u7b49
p319
sg9
V25.7%
p320
sg11
VH\u6307\u6570
p321
sg13
Vh-index
p322
ssV275
p323
(dp324
g4
g323
sg5
VH-Index II
p325
sg7
V\u4e2d\u7b49
p326
sg9
V31.4%
p327
sg11
VH\u6307\u6570 II
p328
sg13
Vh-index-ii
p329
ssV278
p330
(dp331
g4
g330
sg5
VFirst Bad Version
p332
sg7
V\u7b80\u5355
p333
sg9
V22.5%
p334
sg11
V\u7b2c\u4e00\u4e2a\u9519\u8bef\u7684\u7248\u672c
p335
sg13
Vfirst-bad-version
p336
ssV279
p337
(dp338
g4
g337
sg5
VPerfect Squares
p339
sg7
V\u4e2d\u7b49
p340
sg9
V38.4%
p341
sg11
V\u5b8c\u5168\u5e73\u65b9\u6570
p342
sg13
Vperfect-squares
p343
ssV738
p344
(dp345
g4
g344
sg5
VMonotone Increasing Digits
p346
sg7
V\u4e2d\u7b49
p347
sg9
V31.3%
p348
sg11
V\u5355\u8c03\u9012\u589e\u7684\u6570\u5b57
p349
sg13
Vmonotone-increasing-digits
p350
ssV524
p351
(dp352
g4
g351
sg5
VLongest Word in Dictionary through Deleting
p353
sg7
V\u4e2d\u7b49
p354
sg9
V36.2%
p355
sg11
V\u901a\u8fc7\u5220\u9664\u5b57\u6bcd\u5339\u914d\u5230\u5b57\u5178\u91cc\u6700\u957f\u5355\u8bcd
p356
sg13
Vlongest-word-in-dictionary-through-deleting
p357
ssV525
p358
(dp359
g4
g358
sg5
VContiguous Array
p360
sg7
V\u4e2d\u7b49
p361
sg9
V26.3%
p362
sg11
V\u8fde\u7eed\u6570\u7ec4
p363
sg13
Vcontiguous-array
p364
ssV526
p365
(dp366
g4
g365
sg5
VBeautiful Arrangement
p367
sg7
V\u4e2d\u7b49
p368
sg9
V29.4%
p369
sg11
V\u4f18\u7f8e\u7684\u6392\u5217
p370
sg13
Vbeautiful-arrangement
p371
ssV520
p372
(dp373
g4
g372
sg5
VDetect Capital
p374
sg7
V\u7b80\u5355
p375
sg9
V50.6%
p376
sg11
V\u68c0\u6d4b\u5927\u5199\u5b57\u6bcd
p377
sg13
Vdetect-capital
p378
ssV521
p379
(dp380
g4
g379
sg5
VLongest Uncommon Subsequence I 
p381
sg7
V\u7b80\u5355
p382
sg9
V56.2%
p383
sg11
V\u6700\u957f\u7279\u6b8a\u5e8f\u5217 \u2160
p384
sg13
Vlongest-uncommon-subsequence-i
p385
ssV522
p386
(dp387
g4
g386
sg5
VLongest Uncommon Subsequence II
p388
sg7
V\u4e2d\u7b49
p389
sg9
V34.0%
p390
sg11
V\u6700\u957f\u7279\u6b8a\u5e8f\u5217 II
p391
sg13
Vlongest-uncommon-subsequence-ii
p392
ssV523
p393
(dp394
g4
g393
sg5
VContinuous Subarray Sum
p395
sg7
V\u4e2d\u7b49
p396
sg9
V19.0%
p397
sg11
V\u8fde\u7eed\u7684\u5b50\u6570\u7ec4\u548c
p398
sg13
Vcontinuous-subarray-sum
p399
ssV599
p400
(dp401
g4
g400
sg5
VMinimum Index Sum of Two Lists
p402
sg7
V\u7b80\u5355
p403
sg9
V40.4%
p404
sg11
V\u4e24\u4e2a\u5217\u8868\u7684\u6700\u5c0f\u7d22\u5f15\u603b\u548c
p405
sg13
Vminimum-index-sum-of-two-lists
p406
ssV529
p407
(dp408
g4
g407
sg5
VMinesweeper
p409
sg7
V\u4e2d\u7b49
p410
sg9
V46.0%
p411
sg11
V\u626b\u96f7\u6e38\u620f
p412
sg13
Vminesweeper
p413
ssV449
p414
(dp415
g4
g414
sg5
VSerialize and Deserialize BST
p416
sg7
V\u4e2d\u7b49
p417
sg9
V35.0%
p418
sg11
V\u5e8f\u5217\u5316\u548c\u53cd\u5e8f\u5217\u5316\u4e8c\u53c9\u641c\u7d22\u6811
p419
sg13
Vserialize-and-deserialize-bst
p420
ssV448
p421
(dp422
g4
g421
sg5
VFind All Numbers Disappeared in an Array
p423
sg7
V\u7b80\u5355
p424
sg9
V39.8%
p425
sg11
V\u627e\u5230\u6240\u6709\u6570\u7ec4\u4e2d\u6d88\u5931\u7684\u6570\u5b57
p426
sg13
Vfind-all-numbers-disappeared-in-an-array
p427
ssV443
p428
(dp429
g4
g428
sg5
VString Compression
p430
sg7
V\u7b80\u5355
p431
sg9
V27.2%
p432
sg11
V\u538b\u7f29\u5b57\u7b26\u4e32
p433
sg13
Vstring-compression
p434
ssV442
p435
(dp436
g4
g435
sg5
VFind All Duplicates in an Array
p437
sg7
V\u4e2d\u7b49
p438
sg9
V53.2%
p439
sg11
V\u6570\u7ec4\u4e2d\u91cd\u590d\u7684\u6570\u636e
p440
sg13
Vfind-all-duplicates-in-an-array
p441
ssV441
p442
(dp443
g4
g442
sg5
VArranging Coins
p444
sg7
V\u7b80\u5355
p445
sg9
V30.1%
p446
sg11
V\u6392\u5217\u786c\u5e01
p447
sg13
Varranging-coins
p448
ssV440
p449
(dp450
g4
g449
sg5
VK-th Smallest in Lexicographical Order
p451
sg7
V\u56f0\u96be
p452
sg9
V15.8%
p453
sg11
V\u5b57\u5178\u5e8f\u7684\u7b2cK\u5c0f\u6570\u5b57
p454
sg13
Vk-th-smallest-in-lexicographical-order
p455
ssV447
p456
(dp457
g4
g456
sg5
VNumber of Boomerangs
p458
sg7
V\u7b80\u5355
p459
sg9
V44.8%
p460
sg11
V\u56de\u65cb\u9556\u7684\u6570\u91cf
p461
sg13
Vnumber-of-boomerangs
p462
ssV446
p463
(dp464
g4
g463
sg5
VArithmetic Slices II - Subsequence
p465
sg7
V\u56f0\u96be
p466
sg9
V23.7%
p467
sg11
VArithmetic Slices II - Subsequence
p468
sg13
Varithmetic-slices-ii-subsequence
p469
ssV445
p470
(dp471
g4
g470
sg5
VAdd Two Numbers II
p472
sg7
V\u4e2d\u7b49
p473
sg9
V41.2%
p474
sg11
V\u4e24\u6570\u76f8\u52a0 II
p475
sg13
Vadd-two-numbers-ii
p476
ssV108
p477
(dp478
g4
g477
sg5
VConvert Sorted Array to Binary Search Tree
p479
sg7
V\u7b80\u5355
p480
sg9
V58.5%
p481
sg11
V\u5c06\u6709\u5e8f\u6570\u7ec4\u8f6c\u6362\u4e3a\u4e8c\u53c9\u641c\u7d22\u6811
p482
sg13
Vconvert-sorted-array-to-binary-search-tree
p483
ssV109
p484
(dp485
g4
g484
sg5
VConvert Sorted List to Binary Search Tree
p486
sg7
V\u4e2d\u7b49
p487
sg9
V56.8%
p488
sg11
V\u6709\u5e8f\u94fe\u8868\u8f6c\u6362\u4e8c\u53c9\u641c\u7d22\u6811
p489
sg13
Vconvert-sorted-list-to-binary-search-tree
p490
ssV102
p491
(dp492
g4
g491
sg5
VBinary Tree Level Order Traversal
p493
sg7
V\u4e2d\u7b49
p494
sg9
V48.6%
p495
sg11
V\u4e8c\u53c9\u6811\u7684\u5c42\u6b21\u904d\u5386
p496
sg13
Vbinary-tree-level-order-traversal
p497
ssV103
p498
(dp499
g4
g498
sg5
VBinary Tree Zigzag Level Order Traversal
p500
sg7
V\u4e2d\u7b49
p501
sg9
V42.0%
p502
sg11
V\u4e8c\u53c9\u6811\u7684\u952f\u9f7f\u5f62\u5c42\u6b21\u904d\u5386
p503
sg13
Vbinary-tree-zigzag-level-order-traversal
p504
ssV100
p505
(dp506
g4
g505
sg5
VSame Tree
p507
sg7
V\u7b80\u5355
p508
sg9
V48.1%
p509
sg11
V\u76f8\u540c\u7684\u6811
p510
sg13
Vsame-tree
p511
ssV101
p512
(dp513
g4
g512
sg5
VSymmetric Tree
p514
sg7
V\u7b80\u5355
p515
sg9
V42.2%
p516
sg11
V\u5bf9\u79f0\u4e8c\u53c9\u6811
p517
sg13
Vsymmetric-tree
p518
ssV106
p519
(dp520
g4
g519
sg5
VConstruct Binary Tree from Inorder and Postorder Traversal
p521
sg7
V\u4e2d\u7b49
p522
sg9
V53.4%
p523
sg11
V\u4ece\u4e2d\u5e8f\u4e0e\u540e\u5e8f\u904d\u5386\u5e8f\u5217\u6784\u9020\u4e8c\u53c9\u6811
p524
sg13
Vconstruct-binary-tree-from-inorder-and-postorder-traversal
p525
ssV107
p526
(dp527
g4
g526
sg5
VBinary Tree Level Order Traversal II
p528
sg7
V\u7b80\u5355
p529
sg9
V50.8%
p530
sg11
V\u4e8c\u53c9\u6811\u7684\u5c42\u6b21\u904d\u5386 II
p531
sg13
Vbinary-tree-level-order-traversal-ii
p532
ssV104
p533
(dp534
g4
g533
sg5
VMaximum Depth of Binary Tree
p535
sg7
V\u7b80\u5355
p536
sg9
V63.2%
p537
sg11
V\u4e8c\u53c9\u6811\u7684\u6700\u5927\u6df1\u5ea6
p538
sg13
Vmaximum-depth-of-binary-tree
p539
ssV105
p540
(dp541
g4
g540
sg5
VConstruct Binary Tree from Preorder and Inorder Traversal
p542
sg7
V\u4e2d\u7b49
p543
sg9
V51.1%
p544
sg11
V\u4ece\u524d\u5e8f\u4e0e\u4e2d\u5e8f\u904d\u5386\u5e8f\u5217\u6784\u9020\u4e8c\u53c9\u6811
p545
sg13
Vconstruct-binary-tree-from-preorder-and-inorder-traversal
p546
ssV39
p547
(dp548
g4
g547
sg5
VCombination Sum
p549
sg7
V\u4e2d\u7b49
p550
sg9
V57.8%
p551
sg11
V\u7ec4\u5408\u603b\u548c
p552
sg13
Vcombination-sum
p553
ssV38
p554
(dp555
g4
g554
sg5
VCount and Say
p556
sg7
V\u7b80\u5355
p557
sg9
V44.4%
p558
sg11
V\u62a5\u6570
p559
sg13
Vcount-and-say
p560
ssV33
p561
(dp562
g4
g561
sg5
VSearch in Rotated Sorted Array
p563
sg7
V\u4e2d\u7b49
p564
sg9
V32.3%
p565
sg11
V\u641c\u7d22\u65cb\u8f6c\u6392\u5e8f\u6570\u7ec4
p566
sg13
Vsearch-in-rotated-sorted-array
p567
ssV32
p568
(dp569
g4
g568
sg5
VLongest Valid Parentheses
p570
sg7
V\u56f0\u96be
p571
sg9
V21.9%
p572
sg11
V\u6700\u957f\u6709\u6548\u62ec\u53f7
p573
sg13
Vlongest-valid-parentheses
p574
ssV31
p575
(dp576
g4
g575
sg5
VNext Permutation
p577
sg7
V\u4e2d\u7b49
p578
sg9
V28.7%
p579
sg11
V\u4e0b\u4e00\u4e2a\u6392\u5217
p580
sg13
Vnext-permutation
p581
ssV30
p582
(dp583
g4
g582
sg5
VSubstring with Concatenation of All Words
p584
sg7
V\u56f0\u96be
p585
sg9
V19.1%
p586
sg11
V\u4e0e\u6240\u6709\u5355\u8bcd\u76f8\u5173\u8054\u7684\u5b57\u4e32
p587
sg13
Vsubstring-with-concatenation-of-all-words
p588
ssV37
p589
(dp590
g4
g589
sg5
VSudoku Solver
p591
sg7
V\u56f0\u96be
p592
sg9
V44.6%
p593
sg11
V\u89e3\u6570\u72ec
p594
sg13
Vsudoku-solver
p595
ssV36
p596
(dp597
g4
g596
sg5
VValid Sudoku
p598
sg7
V\u4e2d\u7b49
p599
sg9
V46.3%
p600
sg11
V\u6709\u6548\u7684\u6570\u72ec
p601
sg13
Vvalid-sudoku
p602
ssV35
p603
(dp604
g4
g603
sg5
VSearch Insert Position
p605
sg7
V\u7b80\u5355
p606
sg9
V40.2%
p607
sg11
V\u641c\u7d22\u63d2\u5165\u4f4d\u7f6e
p608
sg13
Vsearch-insert-position
p609
ssV34
p610
(dp611
g4
g610
sg5
VFind First and Last Position of Element in Sorted Array
p612
sg7
V\u4e2d\u7b49
p613
sg9
V32.7%
p614
sg11
V\u5728\u6392\u5e8f\u6570\u7ec4\u4e2d\u67e5\u627e\u5143\u7d20\u7684\u7b2c\u4e00\u4e2a\u548c\u6700\u540e\u4e00\u4e2a\u4f4d\u7f6e
p615
sg13
Vfind-first-and-last-position-of-element-in-sorted-array
p616
ssV641
p617
(dp618
g4
g617
sg5
VDesign Circular Deque
p619
sg7
V\u7b80\u5355
p620
sg9
V44.4%
p621
sg11
VDesign Circular Deque
p622
sg13
Vdesign-circular-deque
p623
ssV640
p624
(dp625
g4
g624
sg5
VSolve the Equation
p626
sg7
V\u4e2d\u7b49
p627
sg9
V31.3%
p628
sg11
V\u6c42\u89e3\u65b9\u7a0b
p629
sg13
Vsolve-the-equation
p630
ssV643
p631
(dp632
g4
g631
sg5
VMaximum Average Subarray I
p633
sg7
V\u7b80\u5355
p634
sg9
V29.8%
p635
sg11
V\u5b50\u6570\u7ec4\u6700\u5927\u5e73\u5747\u6570 I
p636
sg13
Vmaximum-average-subarray-i
p637
ssV645
p638
(dp639
g4
g638
sg5
VSet Mismatch
p640
sg7
V\u7b80\u5355
p641
sg9
V28.9%
p642
sg11
V\u9519\u8bef\u7684\u96c6\u5408
p643
sg13
Vset-mismatch
p644
ssV438
p645
(dp646
g4
g645
sg5
VFind All Anagrams in a String
p647
sg7
V\u7b80\u5355
p648
sg9
V29.4%
p649
sg11
V\u627e\u5230\u5b57\u7b26\u4e32\u4e2d\u6240\u6709\u5b57\u6bcd\u5f02\u4f4d\u8bcd
p650
sg13
Vfind-all-anagrams-in-a-string
p651
ssV646
p652
(dp653
g4
g652
sg5
VMaximum Length of Pair Chain
p654
sg7
V\u4e2d\u7b49
p655
sg9
V44.1%
p656
sg11
V\u6700\u957f\u6570\u5bf9\u94fe
p657
sg13
Vmaximum-length-of-pair-chain
p658
ssV436
p659
(dp660
g4
g659
sg5
VFind Right Interval
p661
sg7
V\u4e2d\u7b49
p662
sg9
V34.8%
p663
sg11
V\u5bfb\u627e\u53f3\u533a\u95f4
p664
sg13
Vfind-right-interval
p665
ssV437
p666
(dp667
g4
g666
sg5
VPath Sum III
p668
sg7
V\u7b80\u5355
p669
sg9
V40.9%
p670
sg11
V\u8def\u5f84\u603b\u548c III
p671
sg13
Vpath-sum-iii
p672
ssV434
p673
(dp674
g4
g673
sg5
VNumber of Segments in a String
p675
sg7
V\u7b80\u5355
p676
sg9
V26.1%
p677
sg11
V\u5b57\u7b26\u4e32\u4e2d\u7684\u5355\u8bcd\u6570
p678
sg13
Vnumber-of-segments-in-a-string
p679
ssV435
p680
(dp681
g4
g680
sg5
VNon-overlapping Intervals
p682
sg7
V\u4e2d\u7b49
p683
sg9
V30.8%
p684
sg11
V\u65e0\u91cd\u53e0\u533a\u95f4
p685
sg13
Vnon-overlapping-intervals
p686
ssV432
p687
(dp688
g4
g687
sg5
VAll O`one Data Structure
p689
sg7
V\u56f0\u96be
p690
sg9
V25.4%
p691
sg11
V\u5168 O(1) \u7684\u6570\u636e\u7ed3\u6784
p692
sg13
Vall-oone-data-structure
p693
ssV433
p694
(dp695
g4
g694
sg5
VMinimum Genetic Mutation
p696
sg7
V\u4e2d\u7b49
p697
sg9
V29.3%
p698
sg11
V\u6700\u5c0f\u57fa\u56e0\u53d8\u5316
p699
sg13
Vminimum-genetic-mutation
p700
ssV430
p701
(dp702
g4
g701
sg5
VFlatten a Multilevel Doubly Linked List
p703
sg7
V\u4e2d\u7b49
p704
sg9
V31.0%
p705
sg11
VFlatten a Multilevel Doubly Linked List
p706
sg13
Vflatten-a-multilevel-doubly-linked-list
p707
ssV338
p708
(dp709
g4
g708
sg5
VCounting Bits
p710
sg7
V\u4e2d\u7b49
p711
sg9
V65.7%
p712
sg11
VBit\u4f4d\u8ba1\u6570
p713
sg13
Vcounting-bits
p714
ssV335
p715
(dp716
g4
g715
sg5
VSelf Crossing
p717
sg7
V\u56f0\u96be
p718
sg9
V19.2%
p719
sg11
V\u8def\u5f84\u4ea4\u53c9
p720
sg13
Vself-crossing
p721
ssV334
p722
(dp723
g4
g722
sg5
VIncreasing Triplet Subsequence
p724
sg7
V\u4e2d\u7b49
p725
sg9
V29.7%
p726
sg11
V\u9012\u589e\u7684\u4e09\u5143\u5b50\u5e8f\u5217
p727
sg13
Vincreasing-triplet-subsequence
p728
ssV337
p729
(dp730
g4
g729
sg5
VHouse Robber III
p731
sg7
V\u4e2d\u7b49
p732
sg9
V47.3%
p733
sg11
V\u6253\u5bb6\u52ab\u820d III
p734
sg13
Vhouse-robber-iii
p735
ssV336
p736
(dp737
g4
g736
sg5
VPalindrome Pairs
p738
sg7
V\u56f0\u96be
p739
sg9
V19.9%
p740
sg11
V\u56de\u6587\u5bf9
p741
sg13
Vpalindrome-pairs
p742
ssV331
p743
(dp744
g4
g743
sg5
VVerify Preorder Serialization of a Binary Tree
p745
sg7
V\u4e2d\u7b49
p746
sg9
V37.7%
p747
sg11
V\u9a8c\u8bc1\u4e8c\u53c9\u6811\u7684\u524d\u5e8f\u5e8f\u5217\u5316
p748
sg13
Vverify-preorder-serialization-of-a-binary-tree
p749
ssV330
p750
(dp751
g4
g750
sg5
VPatching Array
p752
sg7
V\u56f0\u96be
p753
sg9
V41.8%
p754
sg11
V\u6309\u8981\u6c42\u8865\u9f50\u6570\u7ec4
p755
sg13
Vpatching-array
p756
ssV332
p757
(dp758
g4
g757
sg5
VReconstruct Itinerary
p759
sg7
V\u4e2d\u7b49
p760
sg9
V29.5%
p761
sg11
V\u91cd\u65b0\u5b89\u6392\u884c\u7a0b
p762
sg13
Vreconstruct-itinerary
p763
ssV744
p764
(dp765
g4
g764
sg5
VFind Smallest Letter Greater Than Target
p766
sg7
V\u7b80\u5355
p767
sg9
V38.8%
p768
sg11
V\u5bfb\u627e\u6bd4\u76ee\u6807\u5b57\u6bcd\u5927\u7684\u6700\u5c0f\u5b57\u6bcd
p769
sg13
Vfind-smallest-letter-greater-than-target
p770
ssV745
p771
(dp772
g4
g771
sg5
VPrefix and Suffix Search
p773
sg7
V\u56f0\u96be
p774
sg9
V18.6%
p775
sg11
V\u524d\u7f00\u548c\u540e\u7f00\u641c\u7d22
p776
sg13
Vprefix-and-suffix-search
p777
ssV854
p778
(dp779
g4
g778
sg5
VK-Similar Strings
p780
sg7
V\u56f0\u96be
p781
sg9
V15.1%
p782
sg11
V\u76f8\u4f3c\u5ea6\u4e3a K \u7684\u5b57\u7b26\u4e32
p783
sg13
Vk-similar-strings
p784
ssV818
p785
(dp786
g4
g785
sg5
VRace Car
p787
sg7
V\u56f0\u96be
p788
sg9
V19.8%
p789
sg11
V\u8d5b\u8f66
p790
sg13
Vrace-car
p791
ssV856
p792
(dp793
g4
g792
sg5
VScore of Parentheses
p794
sg7
V\u4e2d\u7b49
p795
sg9
V46.1%
p796
sg11
V\u62ec\u53f7\u7684\u5206\u6570
p797
sg13
Vscore-of-parentheses
p798
ssV857
p799
(dp800
g4
g799
sg5
VMinimum Cost to Hire K Workers
p801
sg7
V\u56f0\u96be
p802
sg9
V22.3%
p803
sg11
V\u96c7\u4f63 K \u540d\u5de5\u4eba\u7684\u6700\u4f4e\u6210\u672c
p804
sg13
Vminimum-cost-to-hire-k-workers
p805
ssV850
p806
(dp807
g4
g806
sg5
VRectangle Area II
p808
sg7
V\u56f0\u96be
p809
sg9
V36.0%
p810
sg11
V\u77e9\u5f62\u9762\u79ef II
p811
sg13
Vrectangle-area-ii
p812
ssV851
p813
(dp814
g4
g813
sg5
VLoud and Rich
p815
sg7
V\u4e2d\u7b49
p816
sg9
V30.6%
p817
sg11
V\u55a7\u95f9\u548c\u5bcc\u6709
p818
sg13
Vloud-and-rich
p819
ssV852
p820
(dp821
g4
g820
sg5
VPeak Index in a Mountain Array
p822
sg7
V\u7b80\u5355
p823
sg9
V64.3%
p824
sg11
V\u5c71\u8109\u6570\u7ec4\u7684\u5cf0\u9876\u7d22\u5f15
p825
sg13
Vpeak-index-in-a-mountain-array
p826
ssV819
p827
(dp828
g4
g827
sg5
VMost Common Word
p829
sg7
V\u7b80\u5355
p830
sg9
V40.5%
p831
sg11
V\u6700\u5e38\u89c1\u7684\u5355\u8bcd
p832
sg13
Vmost-common-word
p833
ssV858
p834
(dp835
g4
g834
sg5
VMirror Reflection
p836
sg7
V\u4e2d\u7b49
p837
sg9
V33.6%
p838
sg11
V\u955c\u9762\u53cd\u5c04
p839
sg13
Vmirror-reflection
p840
ssV859
p841
(dp842
g4
g841
sg5
VBuddy Strings
p843
sg7
V\u7b80\u5355
p844
sg9
V21.1%
p845
sg11
V\u4eb2\u5bc6\u5b57\u7b26\u4e32
p846
sg13
Vbuddy-strings
p847
ssV6
(dp848
g4
V6
sg5
VZigZag Conversion
p849
sg7
V\u4e2d\u7b49
p850
sg9
V33.9%
p851
sg11
VZ\u5b57\u5f62\u53d8\u6362
p852
sg13
Vzigzag-conversion
p853
ssV848
p854
(dp855
g4
g854
sg5
VShifting Letters
p856
sg7
V\u4e2d\u7b49
p857
sg9
V25.0%
p858
sg11
V\u5b57\u6bcd\u79fb\u4f4d
p859
sg13
Vshifting-letters
p860
ssV99
p861
(dp862
g4
g861
sg5
VRecover Binary Search Tree
p863
sg7
V\u56f0\u96be
p864
sg9
V42.9%
p865
sg11
V\u6062\u590d\u4e8c\u53c9\u641c\u7d22\u6811
p866
sg13
Vrecover-binary-search-tree
p867
ssV98
p868
(dp869
g4
g868
sg5
VValidate Binary Search Tree
p870
sg7
V\u4e2d\u7b49
p871
sg9
V21.3%
p872
sg11
V\u9a8c\u8bc1\u4e8c\u53c9\u641c\u7d22\u6811
p873
sg13
Vvalidate-binary-search-tree
p874
ssV844
p875
(dp876
g4
g875
sg5
VBackspace String Compare
p877
sg7
V\u7b80\u5355
p878
sg9
V41.8%
p879
sg11
V\u6bd4\u8f83\u542b\u9000\u683c\u7684\u5b57\u7b26\u4e32
p880
sg13
Vbackspace-string-compare
p881
ssV91
p882
(dp883
g4
g882
sg5
VDecode Ways
p884
sg7
V\u4e2d\u7b49
p885
sg9
V16.1%
p886
sg11
V\u89e3\u7801\u65b9\u6cd5
p887
sg13
Vdecode-ways
p888
ssV90
p889
(dp890
g4
g889
sg5
VSubsets II
p891
sg7
V\u4e2d\u7b49
p892
sg9
V48.4%
p893
sg11
V\u5b50\u96c6 II
p894
sg13
Vsubsets-ii
p895
ssV93
p896
(dp897
g4
g896
sg5
VRestore IP Addresses
p898
sg7
V\u4e2d\u7b49
p899
sg9
V35.7%
p900
sg11
V\u590d\u539fIP\u5730\u5740
p901
sg13
Vrestore-ip-addresses
p902
ssV92
p903
(dp904
g4
g903
sg5
VReverse Linked List II
p905
sg7
V\u4e2d\u7b49
p906
sg9
V36.6%
p907
sg11
V\u53cd\u8f6c\u94fe\u8868 II
p908
sg13
Vreverse-linked-list-ii
p909
ssV95
p910
(dp911
g4
g910
sg5
VUnique Binary Search Trees II
p912
sg7
V\u4e2d\u7b49
p913
sg9
V40.2%
p914
sg11
V\u4e0d\u540c\u7684\u4e8c\u53c9\u641c\u7d22\u6811 II
p915
sg13
Vunique-binary-search-trees-ii
p916
ssV94
p917
(dp918
g4
g917
sg5
VBinary Tree Inorder Traversal
p919
sg7
V\u4e2d\u7b49
p920
sg9
V61.7%
p921
sg11
V\u4e8c\u53c9\u6811\u7684\u4e2d\u5e8f\u904d\u5386
p922
sg13
Vbinary-tree-inorder-traversal
p923
ssV97
p924
(dp925
g4
g924
sg5
VInterleaving String
p926
sg7
V\u56f0\u96be
p927
sg9
V31.1%
p928
sg11
V\u4ea4\u9519\u5b57\u7b26\u4e32
p929
sg13
Vinterleaving-string
p930
ssV96
p931
(dp932
g4
g931
sg5
VUnique Binary Search Trees
p933
sg7
V\u4e2d\u7b49
p934
sg9
V48.7%
p935
sg11
V\u4e0d\u540c\u7684\u4e8c\u53c9\u641c\u7d22\u6811
p936
sg13
Vunique-binary-search-trees
p937
ssV815
p938
(dp939
g4
g938
sg5
VBus Routes
p940
sg7
V\u56f0\u96be
p941
sg9
V28.1%
p942
sg11
V\u516c\u4ea4\u8def\u7ebf
p943
sg13
Vbus-routes
p944
ssV740
p945
(dp946
g4
g945
sg5
VDelete and Earn
p947
sg7
V\u4e2d\u7b49
p948
sg9
V44.2%
p949
sg11
V\u5220\u9664\u4e0e\u83b7\u5f97\u70b9\u6570
p950
sg13
Vdelete-and-earn
p951
ssV741
p952
(dp953
g4
g952
sg5
VCherry Pickup
p954
sg7
V\u56f0\u96be
p955
sg9
V19.5%
p956
sg11
V\u6458\u6a31\u6843
p957
sg13
Vcherry-pickup
p958
ssV743
p959
(dp960
g4
g959
sg5
VNetwork Delay Time
p961
sg7
V\u4e2d\u7b49
p962
sg9
V29.7%
p963
sg11
V\u7f51\u7edc\u5ef6\u8fdf\u65f6\u95f4
p964
sg13
Vnetwork-delay-time
p965
ssV559
p966
(dp967
g4
g966
sg5
VMaximum Depth of N-ary Tree
p968
sg7
V\u7b80\u5355
p969
sg9
V55.6%
p970
sg11
VN\u53c9\u6811\u7684\u6700\u5927\u6df1\u5ea6
p971
sg13
Vmaximum-depth-of-n-ary-tree
p972
ssV558
p973
(dp974
g4
g973
sg5
VQuad Tree Intersection
p975
sg7
V\u7b80\u5355
p976
sg9
V16.2%
p977
sg11
VQuad Tree Intersection
p978
sg13
Vquad-tree-intersection
p979
ssV746
p980
(dp981
g4
g980
sg5
VMin Cost Climbing Stairs
p982
sg7
V\u7b80\u5355
p983
sg9
V36.5%
p984
sg11
V\u4f7f\u7528\u6700\u5c0f\u82b1\u8d39\u722c\u697c\u68af
p985
sg13
Vmin-cost-climbing-stairs
p986
ssV747
p987
(dp988
g4
g987
sg5
VLargest Number At Least Twice of Others
p989
sg7
V\u7b80\u5355
p990
sg9
V39.0%
p991
sg11
V\u81f3\u5c11\u662f\u5176\u4ed6\u6570\u5b57\u4e24\u500d\u7684\u6700\u5927\u6570
p992
sg13
Vlargest-number-at-least-twice-of-others
p993
ssV748
p994
(dp995
g4
g994
sg5
VShortest Completing Word
p996
sg7
V\u4e2d\u7b49
p997
sg9
V39.8%
p998
sg11
VShortest Completing Word
p999
sg13
Vshortest-completing-word
p1000
ssV554
p1001
(dp1002
g4
g1001
sg5
VBrick Wall
p1003
sg7
V\u4e2d\u7b49
p1004
sg9
V37.7%
p1005
sg11
V\u7816\u5899
p1006
sg13
Vbrick-wall
p1007
ssV557
p1008
(dp1009
g4
g1008
sg5
VReverse Words in a String III
p1010
sg7
V\u7b80\u5355
p1011
sg9
V61.2%
p1012
sg11
V\u53cd\u8f6c\u5b57\u7b26\u4e32\u4e2d\u7684\u5355\u8bcd III
p1013
sg13
Vreverse-words-in-a-string-iii
p1014
ssV556
p1015
(dp1016
g4
g1015
sg5
VNext Greater Element III
p1017
sg7
V\u4e2d\u7b49
p1018
sg9
V19.1%
p1019
sg11
V\u4e0b\u4e00\u4e2a\u66f4\u5927\u5143\u7d20 III
p1020
sg13
Vnext-greater-element-iii
p1021
ssV551
p1022
(dp1023
g4
g1022
sg5
VStudent Attendance Record I
p1024
sg7
V\u7b80\u5355
p1025
sg9
V43.8%
p1026
sg11
V\u5b66\u751f\u51fa\u52e4\u7eaa\u5f55 I
p1027
sg13
Vstudent-attendance-record-i
p1028
ssV553
p1029
(dp1030
g4
g1029
sg5
VOptimal Division
p1031
sg7
V\u4e2d\u7b49
p1032
sg9
V52.5%
p1033
sg11
V\u6700\u4f18\u9664\u6cd5
p1034
sg13
Voptimal-division
p1035
ssV552
p1036
(dp1037
g4
g1036
sg5
VStudent Attendance Record II
p1038
sg7
V\u56f0\u96be
p1039
sg9
V23.9%
p1040
sg11
V\u5b66\u751f\u51fa\u52e4\u8bb0\u5f55 II
p1041
sg13
Vstudent-attendance-record-ii
p1042
ssV238
p1043
(dp1044
g4
g1043
sg5
VProduct of Array Except Self
p1045
sg7
V\u4e2d\u7b49
p1046
sg9
V53.3%
p1047
sg11
V\u9664\u81ea\u8eab\u4ee5\u5916\u6570\u7ec4\u7684\u4e58\u79ef
p1048
sg13
Vproduct-of-array-except-self
p1049
ssV239
p1050
(dp1051
g4
g1050
sg5
VSliding Window Maximum
p1052
sg7
V\u56f0\u96be
p1053
sg9
V39.0%
p1054
sg11
V\u6ed1\u52a8\u7a97\u53e3\u6700\u5927\u503c
p1055
sg13
Vsliding-window-maximum
p1056
ssV234
p1057
(dp1058
g4
g1057
sg5
VPalindrome Linked List
p1059
sg7
V\u7b80\u5355
p1060
sg9
V31.6%
p1061
sg11
V\u56de\u6587\u94fe\u8868
p1062
sg13
Vpalindrome-linked-list
p1063
ssV235
p1064
(dp1065
g4
g1064
sg5
VLowest Common Ancestor of a Binary Search Tree
p1066
sg7
V\u7b80\u5355
p1067
sg9
V47.0%
p1068
sg11
V\u4e8c\u53c9\u641c\u7d22\u6811\u7684\u6700\u8fd1\u516c\u5171\u7956\u5148
p1069
sg13
Vlowest-common-ancestor-of-a-binary-search-tree
p1070
ssV236
p1071
(dp1072
g4
g1071
sg5
VLowest Common Ancestor of a Binary Tree
p1073
sg7
V\u4e2d\u7b49
p1074
sg9
V31.8%
p1075
sg11
V\u4e8c\u53c9\u6811\u7684\u6700\u8fd1\u516c\u5171\u7956\u5148
p1076
sg13
Vlowest-common-ancestor-of-a-binary-tree
p1077
ssV237
p1078
(dp1079
g4
g1078
sg5
VDelete Node in a Linked List
p1080
sg7
V\u7b80\u5355
p1081
sg9
V50.0%
p1082
sg11
V\u5220\u9664\u94fe\u8868\u4e2d\u7684\u8282\u70b9
p1083
sg13
Vdelete-node-in-a-linked-list
p1084
ssV230
p1085
(dp1086
g4
g1085
sg5
VKth Smallest Element in a BST
p1087
sg7
V\u4e2d\u7b49
p1088
sg9
V54.4%
p1089
sg11
V\u4e8c\u53c9\u641c\u7d22\u6811\u4e2d\u7b2cK\u5c0f\u7684\u5143\u7d20
p1090
sg13
Vkth-smallest-element-in-a-bst
p1091
ssV231
p1092
(dp1093
g4
g1092
sg5
VPower of Two
p1094
sg7
V\u7b80\u5355
p1095
sg9
V40.5%
p1096
sg11
V2\u7684\u5e42
p1097
sg13
Vpower-of-two
p1098
ssV232
p1099
(dp1100
g4
g1099
sg5
VImplement Queue using Stacks
p1101
sg7
V\u7b80\u5355
p1102
sg9
V47.0%
p1103
sg11
V\u7528\u6808\u5b9e\u73b0\u961f\u5217
p1104
sg13
Vimplement-queue-using-stacks
p1105
ssV233
p1106
(dp1107
g4
g1106
sg5
VNumber of Digit One
p1108
sg7
V\u56f0\u96be
p1109
sg9
V17.9%
p1110
sg11
V\u6570\u5b571\u7684\u4e2a\u6570
p1111
sg13
Vnumber-of-digit-one
p1112
ssV1
(dp1113
g4
V1
sg5
VTwo Sum
p1114
sg7
V\u7b80\u5355
p1115
sg9
V43.9%
p1116
sg11
V\u4e24\u6570\u4e4b\u548c
p1117
sg13
Vtwo-sum
p1118
ssV146
p1119
(dp1120
g4
g1119
sg5
VLRU Cache
p1121
sg7
V\u56f0\u96be
p1122
sg9
V31.8%
p1123
sg11
VLRU\u7f13\u5b58\u673a\u5236
p1124
sg13
Vlru-cache
p1125
ssV147
p1126
(dp1127
g4
g1126
sg5
VInsertion Sort List
p1128
sg7
V\u4e2d\u7b49
p1129
sg9
V46.8%
p1130
sg11
V\u5bf9\u94fe\u8868\u8fdb\u884c\u63d2\u5165\u6392\u5e8f
p1131
sg13
Vinsertion-sort-list
p1132
ssV144
p1133
(dp1134
g4
g1133
sg5
VBinary Tree Preorder Traversal
p1135
sg7
V\u4e2d\u7b49
p1136
sg9
V48.8%
p1137
sg11
V\u4e8c\u53c9\u6811\u7684\u524d\u5e8f\u904d\u5386
p1138
sg13
Vbinary-tree-preorder-traversal
p1139
ssV145
p1140
(dp1141
g4
g1140
sg5
VBinary Tree Postorder Traversal
p1142
sg7
V\u56f0\u96be
p1143
sg9
V59.5%
p1144
sg11
V\u4e8c\u53c9\u6811\u7684\u540e\u5e8f\u904d\u5386
p1145
sg13
Vbinary-tree-postorder-traversal
p1146
ssV142
p1147
(dp1148
g4
g1147
sg5
VLinked List Cycle II
p1149
sg7
V\u4e2d\u7b49
p1150
sg9
V29.2%
p1151
sg11
V\u73af\u5f62\u94fe\u8868 II
p1152
sg13
Vlinked-list-cycle-ii
p1153
ssV143
p1154
(dp1155
g4
g1154
sg5
VReorder List
p1156
sg7
V\u4e2d\u7b49
p1157
sg9
V43.5%
p1158
sg11
V\u91cd\u6392\u94fe\u8868
p1159
sg13
Vreorder-list
p1160
ssV140
p1161
(dp1162
g4
g1161
sg5
VWord Break II
p1163
sg7
V\u56f0\u96be
p1164
sg9
V27.0%
p1165
sg11
V\u5355\u8bcd\u62c6\u5206 II
p1166
sg13
Vword-break-ii
p1167
ssV141
p1168
(dp1169
g4
g1168
sg5
VLinked List Cycle
p1170
sg7
V\u7b80\u5355
p1171
sg9
V29.7%
p1172
sg11
V\u73af\u5f62\u94fe\u8868
p1173
sg13
Vlinked-list-cycle
p1174
ssV611
p1175
(dp1176
g4
g1175
sg5
VValid Triangle Number
p1177
sg7
V\u4e2d\u7b49
p1178
sg9
V39.0%
p1179
sg11
V\u6709\u6548\u4e09\u89d2\u5f62\u7684\u4e2a\u6570
p1180
sg13
Vvalid-triangle-number
p1181
ssV617
p1182
(dp1183
g4
g1182
sg5
VMerge Two Binary Trees
p1184
sg7
V\u7b80\u5355
p1185
sg9
V63.9%
p1186
sg11
V\u5408\u5e76\u4e8c\u53c9\u6811
p1187
sg13
Vmerge-two-binary-trees
p1188
ssV148
p1189
(dp1190
g4
g1189
sg5
VSort List
p1191
sg7
V\u4e2d\u7b49
p1192
sg9
V46.4%
p1193
sg11
V\u6392\u5e8f\u94fe\u8868
p1194
sg13
Vsort-list
p1195
ssV149
p1196
(dp1197
g4
g1196
sg5
VMax Points on a Line
p1198
sg7
V\u56f0\u96be
p1199
sg9
V10.0%
p1200
sg11
V\u76f4\u7ebf\u4e0a\u6700\u591a\u7684\u70b9\u6570
p1201
sg13
Vmax-points-on-a-line
p1202
ssV768
p1203
(dp1204
g4
g1203
sg5
VMax Chunks To Make Sorted II
p1205
sg7
V\u56f0\u96be
p1206
sg9
V33.5%
p1207
sg11
V\u6700\u591a\u80fd\u5b8c\u6210\u6392\u5e8f\u7684\u5757 II
p1208
sg13
Vmax-chunks-to-make-sorted-ii
p1209
ssV689
p1210
(dp1211
g4
g1210
sg5
VMaximum Sum of 3 Non-Overlapping Subarrays
p1212
sg7
V\u56f0\u96be
p1213
sg9
V22.4%
p1214
sg11
V\u4e09\u4e2a\u65e0\u91cd\u53e0\u5b50\u6570\u7ec4\u7684\u6700\u5927\u548c
p1215
sg13
Vmaximum-sum-of-3-non-overlapping-subarrays
p1216
ssV688
p1217
(dp1218
g4
g1217
sg5
VKnight Probability in Chessboard
p1219
sg7
V\u4e2d\u7b49
p1220
sg9
V34.1%
p1221
sg11
V\u201c\u9a6c\u201d\u5728\u68cb\u76d8\u4e0a\u7684\u6982\u7387
p1222
sg13
Vknight-probability-in-chessboard
p1223
ssV685
p1224
(dp1225
g4
g1224
sg5
VRedundant Connection II
p1226
sg7
V\u56f0\u96be
p1227
sg9
V22.2%
p1228
sg11
V\u5197\u4f59\u8fde\u63a5 II
p1229
sg13
Vredundant-connection-ii
p1230
ssV684
p1231
(dp1232
g4
g1231
sg5
VRedundant Connection
p1233
sg7
V\u4e2d\u7b49
p1234
sg9
V43.7%
p1235
sg11
V\u5197\u4f59\u8fde\u63a5
p1236
sg13
Vredundant-connection
p1237
ssV687
p1238
(dp1239
g4
g1238
sg5
VLongest Univalue Path
p1240
sg7
V\u7b80\u5355
p1241
sg9
V30.1%
p1242
sg11
V\u6700\u957f\u540c\u503c\u8def\u5f84
p1243
sg13
Vlongest-univalue-path
p1244
ssV686
p1245
(dp1246
g4
g1245
sg5
VRepeated String Match
p1247
sg7
V\u7b80\u5355
p1248
sg9
V23.0%
p1249
sg11
V\u91cd\u590d\u53e0\u52a0\u5b57\u7b26\u4e32\u5339\u914d
p1250
sg13
Vrepeated-string-match
p1251
ssV680
p1252
(dp1253
g4
g1252
sg5
VValid Palindrome II
p1254
sg7
V\u7b80\u5355
p1255
sg9
V24.2%
p1256
sg11
V\u9a8c\u8bc1\u56de\u6587\u5b57\u7b26\u4e32 \u2161
p1257
sg13
Vvalid-palindrome-ii
p1258
ssV682
p1259
(dp1260
g4
g1259
sg5
VBaseball Game
p1261
sg7
V\u7b80\u5355
p1262
sg9
V51.7%
p1263
sg11
V\u68d2\u7403\u6bd4\u8d5b
p1264
sg13
Vbaseball-game
p1265
ssV623
p1266
(dp1267
g4
g1266
sg5
VAdd One Row to Tree
p1268
sg7
V\u4e2d\u7b49
p1269
sg9
V32.3%
p1270
sg11
V\u5728\u4e8c\u53c9\u6811\u4e2d\u589e\u52a0\u4e00\u884c
p1271
sg13
Vadd-one-row-to-tree
p1272
ssV622
p1273
(dp1274
g4
g1273
sg5
VDesign Circular Queue
p1275
sg7
V\u7b80\u5355
p1276
sg9
V35.2%
p1277
sg11
V\u8bbe\u8ba1\u5faa\u73af\u961f\u5217
p1278
sg13
Vdesign-circular-queue
p1279
ssV133
p1280
(dp1281
g4
g1280
sg5
VClone Graph
p1282
sg7
V\u4e2d\u7b49
p1283
sg9
V18.5%
p1284
sg11
V\u514b\u9686\u56fe
p1285
sg13
Vclone-graph
p1286
ssV132
p1287
(dp1288
g4
g1287
sg5
VPalindrome Partitioning II
p1289
sg7
V\u56f0\u96be
p1290
sg9
V32.8%
p1291
sg11
V\u5206\u5272\u56de\u6587\u4e32 II
p1292
sg13
Vpalindrome-partitioning-ii
p1293
ssV131
p1294
(dp1295
g4
g1294
sg5
VPalindrome Partitioning
p1296
sg7
V\u4e2d\u7b49
p1297
sg9
V55.7%
p1298
sg11
V\u5206\u5272\u56de\u6587\u4e32
p1299
sg13
Vpalindrome-partitioning
p1300
ssV130
p1301
(dp1302
g4
g1301
sg5
VSurrounded Regions
p1303
sg7
V\u4e2d\u7b49
p1304
sg9
V28.8%
p1305
sg11
V\u88ab\u56f4\u7ed5\u7684\u533a\u57df
p1306
sg13
Vsurrounded-regions
p1307
ssV137
p1308
(dp1309
g4
g1308
sg5
VSingle Number II
p1310
sg7
V\u4e2d\u7b49
p1311
sg9
V60.5%
p1312
sg11
V\u53ea\u51fa\u73b0\u4e00\u6b21\u7684\u6570\u5b57 II
p1313
sg13
Vsingle-number-ii
p1314
ssV136
p1315
(dp1316
g4
g1315
sg5
VSingle Number
p1317
sg7
V\u7b80\u5355
p1318
sg9
V51.9%
p1319
sg11
V\u53ea\u51fa\u73b0\u4e00\u6b21\u7684\u6570\u5b57
p1320
sg13
Vsingle-number
p1321
ssV135
p1322
(dp1323
g4
g1322
sg5
VCandy
p1324
sg7
V\u56f0\u96be
p1325
sg9
V31.1%
p1326
sg11
V\u5206\u53d1\u7cd6\u679c
p1327
sg13
Vcandy
p1328
ssV134
p1329
(dp1330
g4
g1329
sg5
VGas Station
p1331
sg7
V\u4e2d\u7b49
p1332
sg9
V39.7%
p1333
sg11
V\u52a0\u6cb9\u7ad9
p1334
sg13
Vgas-station
p1335
ssV494
p1336
(dp1337
g4
g1336
sg5
VTarget Sum
p1338
sg7
V\u4e2d\u7b49
p1339
sg9
V34.3%
p1340
sg11
V\u76ee\u6807\u548c
p1341
sg13
Vtarget-sum
p1342
ssV495
p1343
(dp1344
g4
g1343
sg5
VTeemo Attacking
p1345
sg7
V\u4e2d\u7b49
p1346
sg9
V42.7%
p1347
sg11
V\u63d0\u83ab\u653b\u51fb
p1348
sg13
Vteemo-attacking
p1349
ssV139
p1350
(dp1351
g4
g1350
sg5
VWord Break
p1352
sg7
V\u4e2d\u7b49
p1353
sg9
V33.0%
p1354
sg11
V\u5355\u8bcd\u62c6\u5206
p1355
sg13
Vword-break
p1356
ssV138
p1357
(dp1358
g4
g1357
sg5
VCopy List with Random Pointer
p1359
sg7
V\u4e2d\u7b49
p1360
sg9
V21.5%
p1361
sg11
V\u590d\u5236\u5e26\u968f\u673a\u6307\u9488\u7684\u94fe\u8868
p1362
sg13
Vcopy-list-with-random-pointer
p1363
ssV491
p1364
(dp1365
g4
g1364
sg5
VIncreasing Subsequences
p1366
sg7
V\u4e2d\u7b49
p1367
sg9
V31.1%
p1368
sg11
V\u9012\u589e\u5b50\u5e8f\u5217
p1369
sg13
Vincreasing-subsequences
p1370
ssV492
p1371
(dp1372
g4
g1371
sg5
VConstruct the Rectangle
p1373
sg7
V\u7b80\u5355
p1374
sg9
V39.2%
p1375
sg11
V\u6784\u9020\u77e9\u5f62
p1376
sg13
Vconstruct-the-rectangle
p1377
ssV493
p1378
(dp1379
g4
g1378
sg5
VReverse Pairs
p1380
sg7
V\u56f0\u96be
p1381
sg9
V12.8%
p1382
sg11
V\u7ffb\u8f6c\u5bf9
p1383
sg13
Vreverse-pairs
p1384
ssV24
p1385
(dp1386
g4
g1385
sg5
VSwap Nodes in Pairs
p1387
sg7
V\u4e2d\u7b49
p1388
sg9
V51.0%
p1389
sg11
V\u4e24\u4e24\u4ea4\u6362\u94fe\u8868\u4e2d\u7684\u8282\u70b9
p1390
sg13
Vswap-nodes-in-pairs
p1391
ssV25
p1392
(dp1393
g4
g1392
sg5
VReverse Nodes in k-Group
p1394
sg7
V\u56f0\u96be
p1395
sg9
V44.7%
p1396
sg11
Vk\u4e2a\u4e00\u7ec4\u7ffb\u8f6c\u94fe\u8868
p1397
sg13
Vreverse-nodes-in-k-group
p1398
ssV26
p1399
(dp1400
g4
g1399
sg5
VRemove Duplicates from Sorted Array
p1401
sg7
V\u7b80\u5355
p1402
sg9
V39.1%
p1403
sg11
V\u5220\u9664\u6392\u5e8f\u6570\u7ec4\u4e2d\u7684\u91cd\u590d\u9879
p1404
sg13
Vremove-duplicates-from-sorted-array
p1405
ssV27
p1406
(dp1407
g4
g1406
sg5
VRemove Element
p1408
sg7
V\u7b80\u5355
p1409
sg9
V48.7%
p1410
sg11
V\u79fb\u9664\u5143\u7d20
p1411
sg13
Vremove-element
p1412
ssV20
p1413
(dp1414
g4
g1413
sg5
VValid Parentheses
p1415
sg7
V\u7b80\u5355
p1416
sg9
V31.6%
p1417
sg11
V\u6709\u6548\u7684\u62ec\u53f7
p1418
sg13
Vvalid-parentheses
p1419
ssV21
p1420
(dp1421
g4
g1420
sg5
VMerge Two Sorted Lists
p1422
sg7
V\u7b80\u5355
p1423
sg9
V48.9%
p1424
sg11
V\u5408\u5e76\u4e24\u4e2a\u6709\u5e8f\u94fe\u8868
p1425
sg13
Vmerge-two-sorted-lists
p1426
ssV22
p1427
(dp1428
g4
g1427
sg5
VGenerate Parentheses
p1429
sg7
V\u4e2d\u7b49
p1430
sg9
V62.6%
p1431
sg11
V\u62ec\u53f7\u751f\u6210
p1432
sg13
Vgenerate-parentheses
p1433
ssV23
p1434
(dp1435
g4
g1434
sg5
VMerge k Sorted Lists
p1436
sg7
V\u56f0\u96be
p1437
sg9
V37.9%
p1438
sg11
V\u5408\u5e76K\u4e2a\u6392\u5e8f\u94fe\u8868
p1439
sg13
Vmerge-k-sorted-lists
p1440
ssV28
p1441
(dp1442
g4
g1441
sg5
VImplement strStr()
p1443
sg7
V\u7b80\u5355
p1444
sg9
V34.8%
p1445
sg11
V\u5b9e\u73b0strStr()
p1446
sg13
Vimplement-strstr
p1447
ssV29
p1448
(dp1449
g4
g1448
sg5
VDivide Two Integers
p1450
sg7
V\u4e2d\u7b49
p1451
sg9
V14.8%
p1452
sg11
V\u4e24\u6570\u76f8\u9664
p1453
sg13
Vdivide-two-integers
p1454
ssV407
p1455
(dp1456
g4
g1455
sg5
VTrapping Rain Water II
p1457
sg7
V\u56f0\u96be
p1458
sg9
V21.5%
p1459
sg11
V\u63a5\u96e8\u6c34 II
p1460
sg13
Vtrapping-rain-water-ii
p1461
ssV406
p1462
(dp1463
g4
g1462
sg5
VQueue Reconstruction by Height
p1464
sg7
V\u4e2d\u7b49
p1465
sg9
V48.3%
p1466
sg11
V\u6839\u636e\u8eab\u9ad8\u91cd\u5efa\u961f\u5217
p1467
sg13
Vqueue-reconstruction-by-height
p1468
ssV405
p1469
(dp1470
g4
g1469
sg5
VConvert a Number to Hexadecimal
p1471
sg7
V\u7b80\u5355
p1472
sg9
V40.1%
p1473
sg11
V\u6570\u5b57\u8f6c\u6362\u4e3a\u5341\u516d\u8fdb\u5236\u6570
p1474
sg13
Vconvert-a-number-to-hexadecimal
p1475
ssV404
p1476
(dp1477
g4
g1476
sg5
VSum of Left Leaves
p1478
sg7
V\u7b80\u5355
p1479
sg9
V44.2%
p1480
sg11
V\u5de6\u53f6\u5b50\u4e4b\u548c
p1481
sg13
Vsum-of-left-leaves
p1482
ssV403
p1483
(dp1484
g4
g1483
sg5
VFrog Jump
p1485
sg7
V\u56f0\u96be
p1486
sg9
V18.6%
p1487
sg11
V\u9752\u86d9\u8fc7\u6cb3
p1488
sg13
Vfrog-jump
p1489
ssV402
p1490
(dp1491
g4
g1490
sg5
VRemove K Digits
p1492
sg7
V\u4e2d\u7b49
p1493
sg9
V20.6%
p1494
sg11
V\u79fb\u6389K\u4f4d\u6570\u5b57
p1495
sg13
Vremove-k-digits
p1496
ssV401
p1497
(dp1498
g4
g1497
sg5
VBinary Watch
p1499
sg7
V\u7b80\u5355
p1500
sg9
V36.8%
p1501
sg11
V\u4e8c\u8fdb\u5236\u624b\u8868
p1502
sg13
Vbinary-watch
p1503
ssV400
p1504
(dp1505
g4
g1504
sg5
VNth Digit
p1506
sg7
V\u7b80\u5355
p1507
sg9
V26.0%
p1508
sg11
V\u7b2cN\u4e2a\u6570\u5b57
p1509
sg13
Vnth-digit
p1510
ssV629
p1511
(dp1512
g4
g1511
sg5
VK Inverse Pairs Array
p1513
sg7
V\u56f0\u96be
p1514
sg9
V29.8%
p1515
sg11
VK\u4e2a\u9006\u5e8f\u5bf9\u6570\u7ec4
p1516
sg13
Vk-inverse-pairs-array
p1517
ssV409
p1518
(dp1519
g4
g1518
sg5
VLongest Palindrome
p1520
sg7
V\u7b80\u5355
p1521
sg9
V39.6%
p1522
sg11
V\u6700\u957f\u56de\u6587\u4e32
p1523
sg13
Vlongest-palindrome
p1524
ssV628
p1525
(dp1526
g4
g1525
sg5
VMaximum Product of Three Numbers
p1527
sg7
V\u7b80\u5355
p1528
sg9
V37.0%
p1529
sg11
V\u4e09\u4e2a\u6570\u7684\u6700\u5927\u4e58\u79ef
p1530
sg13
Vmaximum-product-of-three-numbers
p1531
ssV378
p1532
(dp1533
g4
g1532
sg5
VKth Smallest Element in a Sorted Matrix
p1534
sg7
V\u4e2d\u7b49
p1535
sg9
V46.9%
p1536
sg11
V\u6709\u5e8f\u77e9\u9635\u4e2d\u7b2cK\u5c0f\u7684\u5143\u7d20
p1537
sg13
Vkth-smallest-element-in-a-sorted-matrix
p1538
ssV829
p1539
(dp1540
g4
g1539
sg5
VConsecutive Numbers Sum
p1541
sg7
V\u4e2d\u7b49
p1542
sg9
V21.5%
p1543
sg11
V\u8fde\u7eed\u6574\u6570\u6c42\u548c
p1544
sg13
Vconsecutive-numbers-sum
p1545
ssV828
p1546
(dp1547
g4
g1546
sg5
VUnique Letter String
p1548
sg7
V\u56f0\u96be
p1549
sg9
V16.8%
p1550
sg11
V\u72ec\u7279\u5b57\u7b26\u4e32
p1551
sg13
Vunique-letter-string
p1552
ssV371
p1553
(dp1554
g4
g1553
sg5
VSum of Two Integers
p1555
sg7
V\u7b80\u5355
p1556
sg9
V55.1%
p1557
sg11
V\u4e24\u6574\u6570\u4e4b\u548c
p1558
sg13
Vsum-of-two-integers
p1559
ssV824
p1560
(dp1561
g4
g1560
sg5
VGoat Latin
p1562
sg7
V\u7b80\u5355
p1563
sg9
V44.7%
p1564
sg11
V\u5c71\u7f8a\u62c9\u4e01\u6587
p1565
sg13
Vgoat-latin
p1566
ssV373
p1567
(dp1568
g4
g1567
sg5
VFind K Pairs with Smallest Sums
p1569
sg7
V\u4e2d\u7b49
p1570
sg9
V30.3%
p1571
sg11
V\u67e5\u627e\u548c\u6700\u5c0f\u7684K\u5bf9\u6570\u5b57
p1572
sg13
Vfind-k-pairs-with-smallest-sums
p1573
ssV372
p1574
(dp1575
g4
g1574
sg5
VSuper Pow
p1576
sg7
V\u4e2d\u7b49
p1577
sg9
V23.8%
p1578
sg11
V\u8d85\u7ea7\u6b21\u65b9
p1579
sg13
Vsuper-pow
p1580
ssV375
p1581
(dp1582
g4
g1581
sg5
VGuess Number Higher or Lower II
p1583
sg7
V\u4e2d\u7b49
p1584
sg9
V20.4%
p1585
sg11
V\u731c\u6570\u5b57\u5927\u5c0f II
p1586
sg13
Vguess-number-higher-or-lower-ii
p1587
ssV374
p1588
(dp1589
g4
g1588
sg5
VGuess Number Higher or Lower
p1590
sg7
V\u7b80\u5355
p1591
sg9
V31.0%
p1592
sg11
V\u731c\u6570\u5b57\u5927\u5c0f
p1593
sg13
Vguess-number-higher-or-lower
p1594
ssV377
p1595
(dp1596
g4
g1595
sg5
VCombination Sum IV
p1597
sg7
V\u4e2d\u7b49
p1598
sg9
V39.3%
p1599
sg11
V\u7ec4\u5408\u603b\u548c \u2163
p1600
sg13
Vcombination-sum-iv
p1601
ssV376
p1602
(dp1603
g4
g1602
sg5
VWiggle Subsequence
p1604
sg7
V\u4e2d\u7b49
p1605
sg9
V29.7%
p1606
sg11
V\u6446\u52a8\u5e8f\u5217
p1607
sg13
Vwiggle-subsequence
p1608
ssV709
p1609
(dp1610
g4
g1609
sg5
VTo Lower Case
p1611
sg7
V\u7b80\u5355
p1612
sg9
V70.3%
p1613
sg11
V\u8f6c\u6362\u6210\u5c0f\u5199\u5b57\u6bcd
p1614
sg13
Vto-lower-case
p1615
ssV704
p1616
(dp1617
g4
g1616
sg5
VBinary Search
p1618
sg7
V\u7b80\u5355
p1619
sg9
V46.2%
p1620
sg11
V\u4e8c\u5206\u67e5\u627e
p1621
sg13
Vbinary-search
p1622
ssV705
p1623
(dp1624
g4
g1623
sg5
VDesign HashSet
p1625
sg7
V\u7b80\u5355
p1626
sg9
V48.2%
p1627
sg11
V\u8bbe\u8ba1\u54c8\u5e0c\u96c6\u5408
p1628
sg13
Vdesign-hashset
p1629
ssV706
p1630
(dp1631
g4
g1630
sg5
VDesign HashMap
p1632
sg7
V\u7b80\u5355
p1633
sg9
V50.0%
p1634
sg11
V\u8bbe\u8ba1\u54c8\u5e0c\u6620\u5c04
p1635
sg13
Vdesign-hashmap
p1636
ssV707
p1637
(dp1638
g4
g1637
sg5
VDesign Linked List
p1639
sg7
V\u7b80\u5355
p1640
sg9
V34.1%
p1641
sg11
V\u8bbe\u8ba1\u94fe\u8868
p1642
sg13
Vdesign-linked-list
p1643
ssV700
p1644
(dp1645
g4
g1644
sg5
VSearch in a Binary Search Tree
p1646
sg7
V\u7b80\u5355
p1647
sg9
V28.7%
p1648
sg11
V\u4e8c\u53c9\u641c\u7d22\u6811\u4e2d\u7684\u641c\u7d22
p1649
sg13
Vsearch-in-a-binary-search-tree
p1650
ssV701
p1651
(dp1652
g4
g1651
sg5
VInsert into a Binary Search Tree
p1653
sg7
V\u4e2d\u7b49
p1654
sg9
V24.7%
p1655
sg11
V\u4e8c\u53c9\u641c\u7d22\u6811\u4e2d\u7684\u63d2\u5165\u64cd\u4f5c
p1656
sg13
Vinsert-into-a-binary-search-tree
p1657
ssV703
p1658
(dp1659
g4
g1658
sg5
VKth Largest Element in a Stream
p1660
sg7
V\u7b80\u5355
p1661
sg9
V13.4%
p1662
sg11
V\u6570\u636e\u6d41\u4e2d\u7684\u7b2cK\u5927\u5143\u7d20
p1663
sg13
Vkth-largest-element-in-a-stream
p1664
ssV393
p1665
(dp1666
g4
g1665
sg5
VUTF-8 Validation
p1667
sg7
V\u4e2d\u7b49
p1668
sg9
V28.7%
p1669
sg11
VUTF-8 \u7f16\u7801\u9a8c\u8bc1
p1670
sg13
Vutf-8-validation
p1671
ssV392
p1672
(dp1673
g4
g1672
sg5
VIs Subsequence
p1674
sg7
V\u4e2d\u7b49
p1675
sg9
V39.3%
p1676
sg11
V\u5224\u65ad\u5b50\u5e8f\u5217
p1677
sg13
Vis-subsequence
p1678
ssV88
p1679
(dp1680
g4
g1679
sg5
VMerge Sorted Array
p1681
sg7
V\u7b80\u5355
p1682
sg9
V36.7%
p1683
sg11
V\u5408\u5e76\u4e24\u4e2a\u6709\u5e8f\u6570\u7ec4
p1684
sg13
Vmerge-sorted-array
p1685
ssV89
p1686
(dp1687
g4
g1686
sg5
VGray Code
p1688
sg7
V\u4e2d\u7b49
p1689
sg9
V53.0%
p1690
sg11
V\u683c\u96f7\u7f16\u7801
p1691
sg13
Vgray-code
p1692
ssV397
p1693
(dp1694
g4
g1693
sg5
VInteger Replacement
p1695
sg7
V\u4e2d\u7b49
p1696
sg9
V24.9%
p1697
sg11
V\u6574\u6570\u66ff\u6362
p1698
sg13
Vinteger-replacement
p1699
ssV396
p1700
(dp1701
g4
g1700
sg5
VRotate Function
p1702
sg7
V\u4e2d\u7b49
p1703
sg9
V27.3%
p1704
sg11
V\u65cb\u8f6c\u51fd\u6570
p1705
sg13
Vrotate-function
p1706
ssV395
p1707
(dp1708
g4
g1707
sg5
VLongest Substring with At Least K Repeating Characters
p1709
sg7
V\u4e2d\u7b49
p1710
sg9
V25.0%
p1711
sg11
V\u81f3\u5c11\u6709K\u4e2a\u91cd\u590d\u5b57\u7b26\u7684\u6700\u957f\u5b50\u4e32
p1712
sg13
Vlongest-substring-with-at-least-k-repeating-characters
p1713
ssV394
p1714
(dp1715
g4
g1714
sg5
VDecode String
p1716
sg7
V\u4e2d\u7b49
p1717
sg9
V28.1%
p1718
sg11
V\u5b57\u7b26\u4e32\u89e3\u7801
p1719
sg13
Vdecode-string
p1720
ssV82
p1721
(dp1722
g4
g1721
sg5
VRemove Duplicates from Sorted List II
p1723
sg7
V\u4e2d\u7b49
p1724
sg9
V33.7%
p1725
sg11
V\u5220\u9664\u6392\u5e8f\u94fe\u8868\u4e2d\u7684\u91cd\u590d\u5143\u7d20 II
p1726
sg13
Vremove-duplicates-from-sorted-list-ii
p1727
ssV83
p1728
(dp1729
g4
g1728
sg5
VRemove Duplicates from Sorted List
p1730
sg7
V\u7b80\u5355
p1731
sg9
V40.7%
p1732
sg11
V\u5220\u9664\u6392\u5e8f\u94fe\u8868\u4e2d\u7684\u91cd\u590d\u5143\u7d20
p1733
sg13
Vremove-duplicates-from-sorted-list
p1734
ssV399
p1735
(dp1736
g4
g1735
sg5
VEvaluate Division
p1737
sg7
V\u4e2d\u7b49
p1738
sg9
V36.2%
p1739
sg11
V\u9664\u6cd5\u6c42\u503c
p1740
sg13
Vevaluate-division
p1741
ssV398
p1742
(dp1743
g4
g1742
sg5
VRandom Pick Index
p1744
sg7
V\u4e2d\u7b49
p1745
sg9
V34.0%
p1746
sg11
V\u968f\u673a\u6570\u7d22\u5f15
p1747
sg13
Vrandom-pick-index
p1748
ssV86
p1749
(dp1750
g4
g1749
sg5
VPartition List
p1751
sg7
V\u4e2d\u7b49
p1752
sg9
V38.4%
p1753
sg11
V\u5206\u9694\u94fe\u8868
p1754
sg13
Vpartition-list
p1755
ssV87
p1756
(dp1757
g4
g1756
sg5
VScramble String
p1758
sg7
V\u56f0\u96be
p1759
sg9
V33.9%
p1760
sg11
V\u6270\u4e71\u5b57\u7b26\u4e32
p1761
sg13
Vscramble-string
p1762
ssV84
p1763
(dp1764
g4
g1763
sg5
VLargest Rectangle in Histogram
p1765
sg7
V\u56f0\u96be
p1766
sg9
V31.7%
p1767
sg11
V\u67f1\u72b6\u56fe\u4e2d\u6700\u5927\u7684\u77e9\u5f62
p1768
sg13
Vlargest-rectangle-in-histogram
p1769
ssV85
p1770
(dp1771
g4
g1770
sg5
VMaximal Rectangle
p1772
sg7
V\u56f0\u96be
p1773
sg9
V38.3%
p1774
sg11
V\u6700\u5927\u77e9\u5f62
p1775
sg13
Vmaximal-rectangle
p1776
ssV797
p1777
(dp1778
g4
g1777
sg5
VAll Paths From Source to Target
p1779
sg7
V\u4e2d\u7b49
p1780
sg9
V61.5%
p1781
sg11
V\u6240\u6709\u53ef\u80fd\u7684\u8def\u5f84
p1782
sg13
Vall-paths-from-source-to-target
p1783
ssV796
p1784
(dp1785
g4
g1784
sg5
VRotate String
p1786
sg7
V\u7b80\u5355
p1787
sg9
V38.4%
p1788
sg11
V\u65cb\u8f6c\u5b57\u7b26\u4e32
p1789
sg13
Vrotate-string
p1790
ssV795
p1791
(dp1792
g4
g1791
sg5
VNumber of Subarrays with Bounded Maximum
p1793
sg7
V\u4e2d\u7b49
p1794
sg9
V36.6%
p1795
sg11
V\u533a\u95f4\u5b50\u6570\u7ec4\u4e2a\u6570
p1796
sg13
Vnumber-of-subarrays-with-bounded-maximum
p1797
ssV794
p1798
(dp1799
g4
g1798
sg5
VValid Tic-Tac-Toe State
p1800
sg7
V\u4e2d\u7b49
p1801
sg9
V25.2%
p1802
sg11
V\u6709\u6548\u7684\u4e95\u5b57\u6e38\u620f
p1803
sg13
Vvalid-tic-tac-toe-state
p1804
ssV793
p1805
(dp1806
g4
g1805
sg5
VPreimage Size of Factorial Zeroes Function
p1807
sg7
V\u56f0\u96be
p1808
sg9
V19.0%
p1809
sg11
V\u9636\u4e58\u51fd\u6570\u540eK\u4e2a\u96f6
p1810
sg13
Vpreimage-size-of-factorial-zeroes-function
p1811
ssV792
p1812
(dp1813
g4
g1812
sg5
VNumber of Matching Subsequences
p1814
sg7
V\u4e2d\u7b49
p1815
sg9
V22.9%
p1816
sg11
V\u5339\u914d\u5b50\u5e8f\u5217\u7684\u5355\u8bcd\u6570
p1817
sg13
Vnumber-of-matching-subsequences
p1818
ssV791
p1819
(dp1820
g4
g1819
sg5
VCustom Sort String
p1821
sg7
V\u4e2d\u7b49
p1822
sg9
V51.8%
p1823
sg11
V\u81ea\u5b9a\u4e49\u5b57\u7b26\u4e32\u6392\u5e8f
p1824
sg13
Vcustom-sort-string
p1825
ssV790
p1826
(dp1827
g4
g1826
sg5
VDomino and Tromino Tiling
p1828
sg7
V\u4e2d\u7b49
p1829
sg9
V28.0%
p1830
sg11
VDomino and Tromino Tiling
p1831
sg13
Vdomino-and-tromino-tiling
p1832
ssV799
p1833
(dp1834
g4
g1833
sg5
VChampagne Tower
p1835
sg7
V\u4e2d\u7b49
p1836
sg9
V23.3%
p1837
sg11
V\u9999\u69df\u5854
p1838
sg13
Vchampagne-tower
p1839
ssV798
p1840
(dp1841
g4
g1840
sg5
VSmallest Rotation with Highest Score
p1842
sg7
V\u56f0\u96be
p1843
sg9
V23.5%
p1844
sg11
VSmallest Rotation with Highest Score
p1845
sg13
Vsmallest-rotation-with-highest-score
p1846
ssV7
(dp1847
g4
V7
sg5
VReverse Integer
p1848
sg7
V\u7b80\u5355
p1849
sg9
V28.2%
p1850
sg11
V\u53cd\u8f6c\u6574\u6570
p1851
sg13
Vreverse-integer
p1852
ssV601
p1853
(dp1854
g4
g1853
sg5
VHuman Traffic of Stadium
p1855
sg7
V\u56f0\u96be
p1856
sg9
V31.6%
p1857
sg11
V\u4f53\u80b2\u9986\u7684\u4eba\u6d41\u91cf
p1858
sg13
Vhuman-traffic-of-stadium
p1859
ssV587
p1860
(dp1861
g4
g1860
sg5
VErect the Fence
p1862
sg7
V\u56f0\u96be
p1863
sg9
V15.6%
p1864
sg11
V\u5b89\u88c5\u6805\u680f
p1865
sg13
Verect-the-fence
p1866
ssV583
p1867
(dp1868
g4
g1867
sg5
VDelete Operation for Two Strings
p1869
sg7
V\u4e2d\u7b49
p1870
sg9
V37.1%
p1871
sg11
V\u4e24\u4e2a\u5b57\u7b26\u4e32\u7684\u5220\u9664\u64cd\u4f5c
p1872
sg13
Vdelete-operation-for-two-strings
p1873
ssV581
p1874
(dp1875
g4
g1874
sg5
VShortest Unsorted Continuous Subarray
p1876
sg7
V\u7b80\u5355
p1877
sg9
V27.5%
p1878
sg11
V\u6700\u77ed\u65e0\u5e8f\u8fde\u7eed\u5b50\u6570\u7ec4
p1879
sg13
Vshortest-unsorted-continuous-subarray
p1880
ssV589
p1881
(dp1882
g4
g1881
sg5
VN-ary Tree Preorder Traversal
p1883
sg7
V\u7b80\u5355
p1884
sg9
V46.0%
p1885
sg11
VN\u53c9\u6811\u7684\u524d\u5e8f\u904d\u5386
p1886
sg13
Vn-ary-tree-preorder-traversal
p1887
ssV241
p1888
(dp1889
g4
g1888
sg5
VDifferent Ways to Add Parentheses
p1890
sg7
V\u4e2d\u7b49
p1891
sg9
V61.5%
p1892
sg11
V\u4e3a\u8fd0\u7b97\u8868\u8fbe\u5f0f\u8bbe\u8ba1\u4f18\u5148\u7ea7
p1893
sg13
Vdifferent-ways-to-add-parentheses
p1894
ssV240
p1895
(dp1896
g4
g1895
sg5
VSearch a 2D Matrix II
p1897
sg7
V\u4e2d\u7b49
p1898
sg9
V35.8%
p1899
sg11
V\u641c\u7d22\u4e8c\u7ef4\u77e9\u9635 II
p1900
sg13
Vsearch-a-2d-matrix-ii
p1901
ssV242
p1902
(dp1903
g4
g1902
sg5
VValid Anagram
p1904
sg7
V\u7b80\u5355
p1905
sg9
V45.6%
p1906
sg11
V\u6709\u6548\u7684\u5b57\u6bcd\u5f02\u4f4d\u8bcd
p1907
sg13
Vvalid-anagram
p1908
ssV606
p1909
(dp1910
g4
g1909
sg5
VConstruct String from Binary Tree
p1911
sg7
V\u7b80\u5355
p1912
sg9
V46.6%
p1913
sg11
V\u6839\u636e\u4e8c\u53c9\u6811\u521b\u5efa\u5b57\u7b26\u4e32
p1914
sg13
Vconstruct-string-from-binary-tree
p1915
ssV518
p1916
(dp1917
g4
g1916
sg5
VCoin Change 2
p1918
sg7
V\u4e2d\u7b49
p1919
sg9
V32.6%
p1920
sg11
V\u96f6\u94b1\u5151\u6362 II
p1921
sg13
Vcoin-change-2
p1922
ssV513
p1923
(dp1924
g4
g1923
sg5
VFind Bottom Left Tree Value
p1925
sg7
V\u4e2d\u7b49
p1926
sg9
V55.8%
p1927
sg11
V\u627e\u6811\u5de6\u4e0b\u89d2\u7684\u503c
p1928
sg13
Vfind-bottom-left-tree-value
p1929
ssV515
p1930
(dp1931
g4
g1930
sg5
VFind Largest Value in Each Tree Row
p1932
sg7
V\u4e2d\u7b49
p1933
sg9
V48.6%
p1934
sg11
V\u5728\u6bcf\u4e2a\u6811\u884c\u4e2d\u627e\u6700\u5927\u503c
p1935
sg13
Vfind-largest-value-in-each-tree-row
p1936
ssV514
p1937
(dp1938
g4
g1937
sg5
VFreedom Trail
p1939
sg7
V\u56f0\u96be
p1940
sg9
V44.1%
p1941
sg11
VFreedom Trail
p1942
sg13
Vfreedom-trail
p1943
ssV517
p1944
(dp1945
g4
g1944
sg5
VSuper Washing Machines
p1946
sg7
V\u56f0\u96be
p1947
sg9
V28.4%
p1948
sg11
V\u8d85\u7ea7\u6d17\u8863\u673a
p1949
sg13
Vsuper-washing-machines
p1950
ssV516
p1951
(dp1952
g4
g1951
sg5
VLongest Palindromic Subsequence
p1953
sg7
V\u4e2d\u7b49
p1954
sg9
V34.7%
p1955
sg11
V\u6700\u957f\u56de\u6587\u5b50\u5e8f\u5217
p1956
sg13
Vlongest-palindromic-subsequence
p1957
ssV458
p1958
(dp1959
g4
g1958
sg5
VPoor Pigs
p1960
sg7
V\u7b80\u5355
p1961
sg9
V41.3%
p1962
sg11
V\u53ef\u601c\u7684\u5c0f\u732a
p1963
sg13
Vpoor-pigs
p1964
ssV459
p1965
(dp1966
g4
g1965
sg5
VRepeated Substring Pattern
p1967
sg7
V\u7b80\u5355
p1968
sg9
V33.4%
p1969
sg11
V\u91cd\u590d\u7684\u5b50\u5b57\u7b26\u4e32
p1970
sg13
Vrepeated-substring-pattern
p1971
ssV621
p1972
(dp1973
g4
g1972
sg5
VTask Scheduler
p1974
sg7
V\u4e2d\u7b49
p1975
sg9
V41.7%
p1976
sg11
V\u4efb\u52a1\u8c03\u5ea6\u5668
p1977
sg13
Vtask-scheduler
p1978
ssV620
p1979
(dp1980
g4
g1979
sg5
VNot Boring Movies
p1981
sg7
V\u7b80\u5355
p1982
sg9
V60.7%
p1983
sg11
V\u6709\u8da3\u7684\u7535\u5f71
p1984
sg13
Vnot-boring-movies
p1985
ssV627
p1986
(dp1987
g4
g1986
sg5
VSwap Salary
p1988
sg7
V\u7b80\u5355
p1989
sg9
V61.0%
p1990
sg11
V\u4ea4\u6362\u5de5\u8d44
p1991
sg13
Vswap-salary
p1992
ssV626
p1993
(dp1994
g4
g1993
sg5
VExchange Seats
p1995
sg7
V\u4e2d\u7b49
p1996
sg9
V51.0%
p1997
sg11
V\u6362\u5ea7\u4f4d
p1998
sg13
Vexchange-seats
p1999
ssV450
p2000
(dp2001
g4
g2000
sg5
VDelete Node in a BST
p2002
sg7
V\u4e2d\u7b49
p2003
sg9
V30.9%
p2004
sg11
V\u5220\u9664\u4e8c\u53c9\u641c\u7d22\u6811\u4e2d\u7684\u8282\u70b9
p2005
sg13
Vdelete-node-in-a-bst
p2006
ssV451
p2007
(dp2008
g4
g2007
sg5
VSort Characters By Frequency
p2009
sg7
V\u4e2d\u7b49
p2010
sg9
V46.2%
p2011
sg11
V\u6839\u636e\u5b57\u7b26\u51fa\u73b0\u9891\u7387\u6392\u5e8f
p2012
sg13
Vsort-characters-by-frequency
p2013
ssV452
p2014
(dp2015
g4
g2014
sg5
VMinimum Number of Arrows to Burst Balloons
p2016
sg7
V\u4e2d\u7b49
p2017
sg9
V38.1%
p2018
sg11
V\u7528\u6700\u5c11\u6570\u91cf\u7684\u7bad\u5f15\u7206\u6c14\u7403
p2019
sg13
Vminimum-number-of-arrows-to-burst-balloons
p2020
ssV453
p2021
(dp2022
g4
g2021
sg5
VMinimum Moves to Equal Array Elements
p2023
sg7
V\u7b80\u5355
p2024
sg9
V41.9%
p2025
sg11
V\u6700\u5c0f\u79fb\u52a8\u6b21\u6570\u4f7f\u6570\u7ec4\u5143\u7d20\u76f8\u7b49
p2026
sg13
Vminimum-moves-to-equal-array-elements
p2027
ssV454
p2028
(dp2029
g4
g2028
sg5
V4Sum II
p2030
sg7
V\u4e2d\u7b49
p2031
sg9
V40.9%
p2032
sg11
V\u56db\u6570\u76f8\u52a0 II
p2033
sg13
V4sum-ii
p2034
ssV455
p2035
(dp2036
g4
g2035
sg5
VAssign Cookies
p2037
sg7
V\u7b80\u5355
p2038
sg9
V43.7%
p2039
sg11
V\u5206\u53d1\u997c\u5e72
p2040
sg13
Vassign-cookies
p2041
ssV456
p2042
(dp2043
g4
g2042
sg5
V132 Pattern
p2044
sg7
V\u4e2d\u7b49
p2045
sg9
V15.0%
p2046
sg11
V132\u6a21\u5f0f
p2047
sg13
V132-pattern
p2048
ssV457
p2049
(dp2050
g4
g2049
sg5
VCircular Array Loop
p2051
sg7
V\u4e2d\u7b49
p2052
sg9
V32.2%
p2053
sg11
V\u73af\u5f62\u6570\u7ec4\u5faa\u73af
p2054
sg13
Vcircular-array-loop
p2055
ssV179
p2056
(dp2057
g4
g2056
sg5
VLargest Number
p2058
sg7
V\u4e2d\u7b49
p2059
sg9
V25.2%
p2060
sg11
V\u6700\u5927\u6570
p2061
sg13
Vlargest-number
p2062
ssV178
p2063
(dp2064
g4
g2063
sg5
VRank Scores
p2065
sg7
V\u4e2d\u7b49
p2066
sg9
V42.7%
p2067
sg11
V\u5206\u6570\u6392\u540d
p2068
sg13
Vrank-scores
p2069
ssV177
p2070
(dp2071
g4
g2070
sg5
VNth Highest Salary
p2072
sg7
V\u4e2d\u7b49
p2073
sg9
V32.7%
p2074
sg11
V\u7b2cN\u9ad8\u7684\u85aa\u6c34
p2075
sg13
Vnth-highest-salary
p2076
ssV176
p2077
(dp2078
g4
g2077
sg5
VSecond Highest Salary
p2079
sg7
V\u7b80\u5355
p2080
sg9
V24.3%
p2081
sg11
V\u7b2c\u4e8c\u9ad8\u7684\u85aa\u6c34
p2082
sg13
Vsecond-highest-salary
p2083
ssV175
p2084
(dp2085
g4
g2084
sg5
VCombine Two Tables
p2086
sg7
V\u7b80\u5355
p2087
sg9
V59.5%
p2088
sg11
V\u7ec4\u5408\u4e24\u4e2a\u8868
p2089
sg13
Vcombine-two-tables
p2090
ssV174
p2091
(dp2092
g4
g2091
sg5
VDungeon Game
p2093
sg7
V\u56f0\u96be
p2094
sg9
V29.1%
p2095
sg11
V\u5730\u4e0b\u57ce\u6e38\u620f
p2096
sg13
Vdungeon-game
p2097
ssV173
p2098
(dp2099
g4
g2098
sg5
VBinary Search Tree Iterator
p2100
sg7
V\u4e2d\u7b49
p2101
sg9
V45.5%
p2102
sg11
V\u4e8c\u53c9\u641c\u7d22\u6811\u8fed\u4ee3\u5668
p2103
sg13
Vbinary-search-tree-iterator
p2104
ssV172
p2105
(dp2106
g4
g2105
sg5
VFactorial Trailing Zeroes
p2107
sg7
V\u7b80\u5355
p2108
sg9
V35.0%
p2109
sg11
V\u9636\u4e58\u540e\u7684\u96f6
p2110
sg13
Vfactorial-trailing-zeroes
p2111
ssV171
p2112
(dp2113
g4
g2112
sg5
VExcel Sheet Column Number
p2114
sg7
V\u7b80\u5355
p2115
sg9
V58.1%
p2116
sg11
VExcel\u8868\u5217\u5e8f\u53f7
p2117
sg13
Vexcel-sheet-column-number
p2118
ssV594
p2119
(dp2120
g4
g2119
sg5
VLongest Harmonious Subsequence
p2121
sg7
V\u7b80\u5355
p2122
sg9
V32.7%
p2123
sg11
V\u6700\u957f\u548c\u8c10\u5b50\u5e8f\u5217
p2124
sg13
Vlongest-harmonious-subsequence
p2125
ssV657
p2126
(dp2127
g4
g2126
sg5
VJudge Route Circle
p2128
sg7
V\u7b80\u5355
p2129
sg9
V64.8%
p2130
sg11
V\u5224\u65ad\u8def\u7ebf\u6210\u5708
p2131
sg13
Vjudge-route-circle
p2132
ssV654
p2133
(dp2134
g4
g2133
sg5
VMaximum Binary Tree
p2135
sg7
V\u4e2d\u7b49
p2136
sg9
V67.2%
p2137
sg11
V\u6700\u5927\u4e8c\u53c9\u6811
p2138
sg13
Vmaximum-binary-tree
p2139
ssV182
p2140
(dp2141
g4
g2140
sg5
VDuplicate Emails
p2142
sg7
V\u7b80\u5355
p2143
sg9
V66.0%
p2144
sg11
V\u67e5\u627e\u91cd\u590d\u7684\u7535\u5b50\u90ae\u7bb1
p2145
sg13
Vduplicate-emails
p2146
ssV183
p2147
(dp2148
g4
g2147
sg5
VCustomers Who Never Order
p2149
sg7
V\u7b80\u5355
p2150
sg9
V51.1%
p2151
sg11
V\u4ece\u4e0d\u8ba2\u8d2d\u7684\u5ba2\u6237
p2152
sg13
Vcustomers-who-never-order
p2153
ssV180
p2154
(dp2155
g4
g2154
sg5
VConsecutive Numbers
p2156
sg7
V\u4e2d\u7b49
p2157
sg9
V33.9%
p2158
sg11
V\u8fde\u7eed\u51fa\u73b0\u7684\u6570\u5b57
p2159
sg13
Vconsecutive-numbers
p2160
ssV181
p2161
(dp2162
g4
g2161
sg5
VEmployees Earning More Than Their Managers
p2163
sg7
V\u7b80\u5355
p2164
sg9
V54.9%
p2165
sg11
V\u8d85\u8fc7\u7ecf\u7406\u6536\u5165\u7684\u5458\u5de5
p2166
sg13
Vemployees-earning-more-than-their-managers
p2167
ssV652
p2168
(dp2169
g4
g2168
sg5
VFind Duplicate Subtrees
p2170
sg7
V\u4e2d\u7b49
p2171
sg9
V42.9%
p2172
sg11
V\u5bfb\u627e\u91cd\u590d\u7684\u5b50\u6811
p2173
sg13
Vfind-duplicate-subtrees
p2174
ssV187
p2175
(dp2176
g4
g2175
sg5
VRepeated DNA Sequences
p2177
sg7
V\u4e2d\u7b49
p2178
sg9
V42.6%
p2179
sg11
V\u91cd\u590d\u7684DNA\u5e8f\u5217
p2180
sg13
Vrepeated-dna-sequences
p2181
ssV184
p2182
(dp2183
g4
g2182
sg5
VDepartment Highest Salary
p2184
sg7
V\u4e2d\u7b49
p2185
sg9
V26.2%
p2186
sg11
V\u90e8\u95e8\u5de5\u8d44\u6700\u9ad8\u7684\u5458\u5de5
p2187
sg13
Vdepartment-highest-salary
p2188
ssV185
p2189
(dp2190
g4
g2189
sg5
VDepartment Top Three Salaries
p2191
sg7
V\u56f0\u96be
p2192
sg9
V21.5%
p2193
sg11
V\u90e8\u95e8\u5de5\u8d44\u524d\u4e09\u9ad8\u7684\u5458\u5de5
p2194
sg13
Vdepartment-top-three-salaries
p2195
ssV188
p2196
(dp2197
g4
g2196
sg5
VBest Time to Buy and Sell Stock IV
p2198
sg7
V\u56f0\u96be
p2199
sg9
V19.2%
p2200
sg11
V\u4e70\u5356\u80a1\u7968\u7684\u6700\u4f73\u65f6\u673a IV
p2201
sg13
Vbest-time-to-buy-and-sell-stock-iv
p2202
ssV189
p2203
(dp2204
g4
g2203
sg5
VRotate Array
p2205
sg7
V\u7b80\u5355
p2206
sg9
V31.3%
p2207
sg11
V\u65cb\u8f6c\u6570\u7ec4
p2208
sg13
Vrotate-array
p2209
ssV658
p2210
(dp2211
g4
g2210
sg5
VFind K Closest Elements
p2212
sg7
V\u4e2d\u7b49
p2213
sg9
V29.7%
p2214
sg11
VFind K Closest Elements
p2215
sg13
Vfind-k-closest-elements
p2216
ssV653
p2217
(dp2218
g4
g2217
sg5
VTwo Sum IV - Input is a BST
p2219
sg7
V\u7b80\u5355
p2220
sg9
V44.6%
p2221
sg11
V\u4e24\u6570\u4e4b\u548c IV - \u8f93\u5165 BST
p2222
sg13
Vtwo-sum-iv-input-is-a-bst
p2223
ssV650
p2224
(dp2225
g4
g2224
sg5
V2 Keys Keyboard
p2226
sg7
V\u4e2d\u7b49
p2227
sg9
V36.1%
p2228
sg11
V\u53ea\u6709\u4e24\u4e2a\u952e\u7684\u952e\u76d8
p2229
sg13
V2-keys-keyboard
p2230
ssV764
p2231
(dp2232
g4
g2231
sg5
VLargest Plus Sign
p2233
sg7
V\u4e2d\u7b49
p2234
sg9
V41.0%
p2235
sg11
V\u6700\u5927\u52a0\u53f7\u6807\u5fd7
p2236
sg13
Vlargest-plus-sign
p2237
ssV11
p2238
(dp2239
g4
g2238
sg5
VContainer With Most Water
p2240
sg7
V\u4e2d\u7b49
p2241
sg9
V33.7%
p2242
sg11
V\u76db\u6700\u591a\u6c34\u7684\u5bb9\u5668
p2243
sg13
Vcontainer-with-most-water
p2244
ssV10
p2245
(dp2246
g4
g2245
sg5
VRegular Expression Matching
p2247
sg7
V\u56f0\u96be
p2248
sg9
V18.0%
p2249
sg11
V\u6b63\u5219\u8868\u8fbe\u5f0f\u5339\u914d
p2250
sg13
Vregular-expression-matching
p2251
ssV13
p2252
(dp2253
g4
g2252
sg5
VRoman to Integer
p2254
sg7
V\u7b80\u5355
p2255
sg9
V53.6%
p2256
sg11
V\u7f57\u9a6c\u6570\u5b57\u8f6c\u6574\u6570
p2257
sg13
Vroman-to-integer
p2258
ssV12
p2259
(dp2260
g4
g2259
sg5
VInteger to Roman
p2261
sg7
V\u4e2d\u7b49
p2262
sg9
V54.4%
p2263
sg11
V\u6574\u6570\u8f6c\u7f57\u9a6c\u6570\u5b57
p2264
sg13
Vinteger-to-roman
p2265
ssV15
p2266
(dp2267
g4
g2266
sg5
V3Sum
p2268
sg7
V\u4e2d\u7b49
p2269
sg9
V15.2%
p2270
sg11
V\u4e09\u6570\u4e4b\u548c
p2271
sg13
V3sum
p2272
ssV14
p2273
(dp2274
g4
g2273
sg5
VLongest Common Prefix
p2275
sg7
V\u7b80\u5355
p2276
sg9
V28.6%
p2277
sg11
V\u6700\u957f\u516c\u5171\u524d\u7f00
p2278
sg13
Vlongest-common-prefix
p2279
ssV17
p2280
(dp2281
g4
g2280
sg5
VLetter Combinations of a Phone Number
p2282
sg7
V\u4e2d\u7b49
p2283
sg9
V42.6%
p2284
sg11
V\u7535\u8bdd\u53f7\u7801\u7684\u5b57\u6bcd\u7ec4\u5408
p2285
sg13
Vletter-combinations-of-a-phone-number
p2286
ssV16
p2287
(dp2288
g4
g2287
sg5
V3Sum Closest
p2289
sg7
V\u4e2d\u7b49
p2290
sg9
V34.4%
p2291
sg11
V\u6700\u63a5\u8fd1\u7684\u4e09\u6570\u4e4b\u548c
p2292
sg13
V3sum-closest
p2293
ssV19
p2294
(dp2295
g4
g2294
sg5
VRemove Nth Node From End of List
p2296
sg7
V\u4e2d\u7b49
p2297
sg9
V29.6%
p2298
sg11
V\u5220\u9664\u94fe\u8868\u7684\u5012\u6570\u7b2cN\u4e2a\u8282\u70b9
p2299
sg13
Vremove-nth-node-from-end-of-list
p2300
ssV18
p2301
(dp2302
g4
g2301
sg5
V4Sum
p2303
sg7
V\u4e2d\u7b49
p2304
sg9
V29.3%
p2305
sg11
V\u56db\u6570\u4e4b\u548c
p2306
sg13
V4sum
p2307
ssV863
p2308
(dp2309
g4
g2308
sg5
VAll Nodes Distance K in Binary Tree
p2310
sg7
V\u4e2d\u7b49
p2311
sg9
V29.8%
p2312
sg11
V\u4e8c\u53c9\u6811\u4e2d\u6240\u6709\u8ddd\u79bb\u4e3a K \u7684\u7ed3\u70b9
p2313
sg13
Vall-nodes-distance-k-in-binary-tree
p2314
ssV862
p2315
(dp2316
g4
g2315
sg5
VShortest Subarray with Sum at Least K
p2317
sg7
V\u56f0\u96be
p2318
sg9
V6.6%
p2319
sg11
V\u548c\u81f3\u5c11\u4e3a K \u7684\u6700\u77ed\u5b50\u6570\u7ec4
p2320
sg13
Vshortest-subarray-with-sum-at-least-k
p2321
ssV865
p2322
(dp2323
g4
g2322
sg5
VSmallest Subtree with all the Deepest Nodes
p2324
sg7
V\u4e2d\u7b49
p2325
sg9
V22.1%
p2326
sg11
V\u5177\u6709\u6240\u6709\u6700\u6df1\u7ed3\u70b9\u7684\u6700\u5c0f\u5b50\u6811
p2327
sg13
Vsmallest-subtree-with-all-the-deepest-nodes
p2328
ssV864
p2329
(dp2330
g4
g2329
sg5
VShortest Path to Get All Keys
p2331
sg7
V\u56f0\u96be
p2332
sg9
V32.5%
p2333
sg11
V\u83b7\u53d6\u6240\u6709\u94a5\u5319\u7684\u6700\u77ed\u8def\u5f84
p2334
sg13
Vshortest-path-to-get-all-keys
p2335
ssV867
p2336
(dp2337
g4
g2336
sg5
VTranspose Matrix
p2338
sg7
V\u7b80\u5355
p2339
sg9
V59.3%
p2340
sg11
V\u8f6c\u7f6e\u77e9\u9635
p2341
sg13
Vtranspose-matrix
p2342
ssV866
p2343
(dp2344
g4
g2343
sg5
VPrime Palindrome
p2345
sg7
V\u4e2d\u7b49
p2346
sg9
V12.5%
p2347
sg11
V\u56de\u6587\u7d20\u6570
p2348
sg13
Vprime-palindrome
p2349
ssV659
p2350
(dp2351
g4
g2350
sg5
VSplit Array into Consecutive Subsequences
p2352
sg7
V\u4e2d\u7b49
p2353
sg9
V31.6%
p2354
sg11
V\u5206\u5272\u6570\u7ec4\u4e3a\u8fde\u7eed\u5b50\u5e8f\u5217
p2355
sg13
Vsplit-array-into-consecutive-subsequences
p2356
ssV62
p2357
(dp2358
g4
g2357
sg5
VUnique Paths
p2359
sg7
V\u4e2d\u7b49
p2360
sg9
V48.3%
p2361
sg11
V\u4e0d\u540c\u8def\u5f84
p2362
sg13
Vunique-paths
p2363
ssV809
p2364
(dp2365
g4
g2364
sg5
VExpressive Words
p2366
sg7
V\u4e2d\u7b49
p2367
sg9
V27.2%
p2368
sg11
V\u60c5\u611f\u4e30\u5bcc\u7684\u6587\u5b57
p2369
sg13
Vexpressive-words
p2370
ssV322
p2371
(dp2372
g4
g2371
sg5
VCoin Change
p2373
sg7
V\u4e2d\u7b49
p2374
sg9
V23.6%
p2375
sg11
V\u96f6\u94b1\u5151\u6362
p2376
sg13
Vcoin-change
p2377
ssV321
p2378
(dp2379
g4
g2378
sg5
VCreate Maximum Number
p2380
sg7
V\u56f0\u96be
p2381
sg9
V17.1%
p2382
sg11
V\u62fc\u63a5\u6700\u5927\u6570
p2383
sg13
Vcreate-maximum-number
p2384
ssV326
p2385
(dp2386
g4
g2385
sg5
VPower of Three
p2387
sg7
V\u7b80\u5355
p2388
sg9
V38.7%
p2389
sg11
V3\u7684\u5e42
p2390
sg13
Vpower-of-three
p2391
ssV327
p2392
(dp2393
g4
g2392
sg5
VCount of Range Sum
p2394
sg7
V\u56f0\u96be
p2395
sg9
V32.3%
p2396
sg11
V\u533a\u95f4\u548c\u7684\u4e2a\u6570
p2397
sg13
Vcount-of-range-sum
p2398
ssV324
p2399
(dp2400
g4
g2399
sg5
VWiggle Sort II
p2401
sg7
V\u4e2d\u7b49
p2402
sg9
V25.5%
p2403
sg11
V\u6446\u52a8\u6392\u5e8f II
p2404
sg13
Vwiggle-sort-ii
p2405
ssV328
p2406
(dp2407
g4
g2406
sg5
VOdd Even Linked List
p2408
sg7
V\u4e2d\u7b49
p2409
sg9
V51.1%
p2410
sg11
V\u5947\u5076\u94fe\u8868
p2411
sg13
Vodd-even-linked-list
p2412
ssV329
p2413
(dp2414
g4
g2413
sg5
VLongest Increasing Path in a Matrix
p2415
sg7
V\u56f0\u96be
p2416
sg9
V30.9%
p2417
sg11
V\u77e9\u9635\u4e2d\u7684\u6700\u957f\u9012\u589e\u8def\u5f84
p2418
sg13
Vlongest-increasing-path-in-a-matrix
p2419
ssV201
p2420
(dp2421
g4
g2420
sg5
VBitwise AND of Numbers Range
p2422
sg7
V\u4e2d\u7b49
p2423
sg9
V32.3%
p2424
sg11
V\u6570\u5b57\u8303\u56f4\u6309\u4f4d\u4e0e
p2425
sg13
Vbitwise-and-of-numbers-range
p2426
ssV200
p2427
(dp2428
g4
g2427
sg5
VNumber of Islands
p2429
sg7
V\u4e2d\u7b49
p2430
sg9
V36.8%
p2431
sg11
V\u5c9b\u5c7f\u7684\u4e2a\u6570
p2432
sg13
Vnumber-of-islands
p2433
ssV203
p2434
(dp2435
g4
g2434
sg5
VRemove Linked List Elements
p2436
sg7
V\u7b80\u5355
p2437
sg9
V38.5%
p2438
sg11
V\u5220\u9664\u94fe\u8868\u4e2d\u7684\u8282\u70b9
p2439
sg13
Vremove-linked-list-elements
p2440
ssV202
p2441
(dp2442
g4
g2441
sg5
VHappy Number
p2443
sg7
V\u7b80\u5355
p2444
sg9
V45.6%
p2445
sg11
V\u5feb\u4e50\u6570
p2446
sg13
Vhappy-number
p2447
ssV205
p2448
(dp2449
g4
g2448
sg5
VIsomorphic Strings
p2450
sg7
V\u7b80\u5355
p2451
sg9
V37.9%
p2452
sg11
V\u540c\u6784\u5b57\u7b26\u4e32
p2453
sg13
Visomorphic-strings
p2454
ssV204
p2455
(dp2456
g4
g2455
sg5
VCount Primes
p2457
sg7
V\u7b80\u5355
p2458
sg9
V21.0%
p2459
sg11
V\u8ba1\u6570\u8d28\u6570
p2460
sg13
Vcount-primes
p2461
ssV207
p2462
(dp2463
g4
g2462
sg5
VCourse Schedule
p2464
sg7
V\u4e2d\u7b49
p2465
sg9
V37.6%
p2466
sg11
V\u8bfe\u7a0b\u8868
p2467
sg13
Vcourse-schedule
p2468
ssV206
p2469
(dp2470
g4
g2469
sg5
VReverse Linked List
p2471
sg7
V\u7b80\u5355
p2472
sg9
V49.1%
p2473
sg11
V\u53cd\u8f6c\u94fe\u8868
p2474
sg13
Vreverse-linked-list
p2475
ssV209
p2476
(dp2477
g4
g2476
sg5
VMinimum Size Subarray Sum
p2478
sg7
V\u4e2d\u7b49
p2479
sg9
V33.5%
p2480
sg11
V\u957f\u5ea6\u6700\u5c0f\u7684\u5b50\u6570\u7ec4
p2481
sg13
Vminimum-size-subarray-sum
p2482
ssV208
p2483
(dp2484
g4
g2483
sg5
VImplement Trie (Prefix Tree)
p2485
sg7
V\u4e2d\u7b49
p2486
sg9
V46.4%
p2487
sg11
V\u5b9e\u73b0 Trie (\u524d\u7f00\u6811)
p2488
sg13
Vimplement-trie-prefix-tree
p2489
ssV779
p2490
(dp2491
g4
g2490
sg5
VK-th Symbol in Grammar
p2492
sg7
V\u4e2d\u7b49
p2493
sg9
V33.4%
p2494
sg11
V\u7b2cK\u4e2a\u8bed\u6cd5\u7b26\u53f7
p2495
sg13
Vk-th-symbol-in-grammar
p2496
ssV778
p2497
(dp2498
g4
g2497
sg5
VSwim in Rising Water
p2499
sg7
V\u56f0\u96be
p2500
sg9
V31.5%
p2501
sg11
V\u6c34\u4f4d\u4e0a\u5347\u7684\u6cf3\u6c60\u4e2d\u6e38\u6cf3
p2502
sg13
Vswim-in-rising-water
p2503
ssV77
p2504
(dp2505
g4
g2504
sg5
VCombinations
p2506
sg7
V\u4e2d\u7b49
p2507
sg9
V58.5%
p2508
sg11
V\u7ec4\u5408
p2509
sg13
Vcombinations
p2510
ssV76
p2511
(dp2512
g4
g2511
sg5
VMinimum Window Substring
p2513
sg7
V\u56f0\u96be
p2514
sg9
V28.6%
p2515
sg11
V\u6700\u5c0f\u8986\u76d6\u5b50\u4e32
p2516
sg13
Vminimum-window-substring
p2517
ssV75
p2518
(dp2519
g4
g2518
sg5
VSort Colors
p2520
sg7
V\u4e2d\u7b49
p2521
sg9
V47.6%
p2522
sg11
V\u5206\u7c7b\u989c\u8272
p2523
sg13
Vsort-colors
p2524
ssV74
p2525
(dp2526
g4
g2525
sg5
VSearch a 2D Matrix
p2527
sg7
V\u4e2d\u7b49
p2528
sg9
V31.2%
p2529
sg11
V\u641c\u7d22\u4e8c\u7ef4\u77e9\u9635
p2530
sg13
Vsearch-a-2d-matrix
p2531
ssV73
p2532
(dp2533
g4
g2532
sg5
VSet Matrix Zeroes
p2534
sg7
V\u4e2d\u7b49
p2535
sg9
V47.4%
p2536
sg11
V\u77e9\u9635\u7f6e\u96f6
p2537
sg13
Vset-matrix-zeroes
p2538
ssV72
p2539
(dp2540
g4
g2539
sg5
VEdit Distance
p2541
sg7
V\u56f0\u96be
p2542
sg9
V41.1%
p2543
sg11
V\u7f16\u8f91\u8ddd\u79bb
p2544
sg13
Vedit-distance
p2545
ssV71
p2546
(dp2547
g4
g2546
sg5
VSimplify Path
p2548
sg7
V\u4e2d\u7b49
p2549
sg9
V24.4%
p2550
sg11
V\u7b80\u5316\u8def\u5f84
p2551
sg13
Vsimplify-path
p2552
ssV70
p2553
(dp2554
g4
g2553
sg5
VClimbing Stairs
p2555
sg7
V\u7b80\u5355
p2556
sg9
V40.8%
p2557
sg11
V\u722c\u697c\u68af
p2558
sg13
Vclimbing-stairs
p2559
ssV655
p2560
(dp2561
g4
g2560
sg5
VPrint Binary Tree
p2562
sg7
V\u4e2d\u7b49
p2563
sg9
V48.1%
p2564
sg11
V\u8f93\u51fa\u4e8c\u53c9\u6811
p2565
sg13
Vprint-binary-tree
p2566
ssV79
p2567
(dp2568
g4
g2567
sg5
VWord Search
p2569
sg7
V\u4e2d\u7b49
p2570
sg9
V31.7%
p2571
sg11
V\u5355\u8bcd\u641c\u7d22
p2572
sg13
Vword-search
p2573
ssV78
p2574
(dp2575
g4
g2574
sg5
VSubsets
p2576
sg7
V\u4e2d\u7b49
p2577
sg9
V66.3%
p2578
sg11
V\u5b50\u96c6
p2579
sg13
Vsubsets
p2580
ssV2
(dp2581
g4
V2
sg5
VAdd Two Numbers
p2582
sg7
V\u4e2d\u7b49
p2583
sg9
V28.9%
p2584
sg11
V\u4e24\u6570\u76f8\u52a0
p2585
sg13
Vadd-two-numbers
p2586
ssV669
p2587
(dp2588
g4
g2587
sg5
VTrim a Binary Search Tree
p2589
sg7
V\u7b80\u5355
p2590
sg9
V52.2%
p2591
sg11
V\u4fee\u526a\u4e8c\u53c9\u641c\u7d22\u6811
p2592
sg13
Vtrim-a-binary-search-tree
p2593
ssV668
p2594
(dp2595
g4
g2594
sg5
VKth Smallest Number in Multiplication Table
p2596
sg7
V\u56f0\u96be
p2597
sg9
V20.6%
p2598
sg11
V\u4e58\u6cd5\u8868\u4e2d\u7b2ck\u5c0f\u7684\u6570
p2599
sg13
Vkth-smallest-number-in-multiplication-table
p2600
ssV667
p2601
(dp2602
g4
g2601
sg5
VBeautiful Arrangement II
p2603
sg7
V\u4e2d\u7b49
p2604
sg9
V53.7%
p2605
sg11
V\u4f18\u7f8e\u7684\u6392\u5217 II
p2606
sg13
Vbeautiful-arrangement-ii
p2607
ssV665
p2608
(dp2609
g4
g2608
sg5
VNon-decreasing Array
p2610
sg7
V\u7b80\u5355
p2611
sg9
V16.2%
p2612
sg11
V\u975e\u9012\u51cf\u6570\u5217
p2613
sg13
Vnon-decreasing-array
p2614
ssV664
p2615
(dp2616
g4
g2615
sg5
VStrange Printer
p2617
sg7
V\u56f0\u96be
p2618
sg9
V28.2%
p2619
sg11
V\u5947\u602a\u7684\u6253\u5370\u673a
p2620
sg13
Vstrange-printer
p2621
ssV662
p2622
(dp2623
g4
g2622
sg5
VMaximum Width of Binary Tree
p2624
sg7
V\u4e2d\u7b49
p2625
sg9
V31.9%
p2626
sg11
V\u4e8c\u53c9\u6811\u6700\u5927\u5bbd\u5ea6
p2627
sg13
Vmaximum-width-of-binary-tree
p2628
ssV661
p2629
(dp2630
g4
g2629
sg5
VImage Smoother
p2631
sg7
V\u7b80\u5355
p2632
sg9
V40.2%
p2633
sg11
V\u56fe\u7247\u5e73\u6ed1\u5668
p2634
sg13
Vimage-smoother
p2635
ssV769
p2636
(dp2637
g4
g2636
sg5
VMax Chunks To Make Sorted
p2638
sg7
V\u4e2d\u7b49
p2639
sg9
V35.3%
p2640
sg11
V\u6700\u591a\u80fd\u5b8c\u6210\u6392\u5e8f\u7684\u5757
p2641
sg13
Vmax-chunks-to-make-sorted
p2642
ssV692
p2643
(dp2644
g4
g2643
sg5
VTop K Frequent Words
p2645
sg7
V\u4e2d\u7b49
p2646
sg9
V33.1%
p2647
sg11
V\u524dK\u4e2a\u9ad8\u9891\u5355\u8bcd
p2648
sg13
Vtop-k-frequent-words
p2649
ssV693
p2650
(dp2651
g4
g2650
sg5
VBinary Number with Alternating Bits
p2652
sg7
V\u7b80\u5355
p2653
sg9
V56.4%
p2654
sg11
V\u4ea4\u66ff\u4f4d\u4e8c\u8fdb\u5236\u6570
p2655
sg13
Vbinary-number-with-alternating-bits
p2656
ssV690
p2657
(dp2658
g4
g2657
sg5
VEmployee Importance
p2659
sg7
V\u7b80\u5355
p2660
sg9
V44.7%
p2661
sg11
V\u5458\u5de5\u7684\u91cd\u8981\u6027
p2662
sg13
Vemployee-importance
p2663
ssV691
p2664
(dp2665
g4
g2664
sg5
VStickers to Spell Word
p2666
sg7
V\u56f0\u96be
p2667
sg9
V38.1%
p2668
sg11
VStickers to Spell Word
p2669
sg13
Vstickers-to-spell-word
p2670
ssV696
p2671
(dp2672
g4
g2671
sg5
VCount Binary Substrings
p2673
sg7
V\u7b80\u5355
p2674
sg9
V46.2%
p2675
sg11
V\u8ba1\u6570\u4e8c\u8fdb\u5236\u5b50\u4e32
p2676
sg13
Vcount-binary-substrings
p2677
ssV697
p2678
(dp2679
g4
g2678
sg5
VDegree of an Array
p2680
sg7
V\u7b80\u5355
p2681
sg9
V38.8%
p2682
sg11
V\u6570\u7ec4\u7684\u5ea6
p2683
sg13
Vdegree-of-an-array
p2684
ssV695
p2685
(dp2686
g4
g2685
sg5
VMax Area of Island
p2687
sg7
V\u7b80\u5355
p2688
sg9
V50.1%
p2689
sg11
V\u5c9b\u5c7f\u7684\u6700\u5927\u9762\u79ef
p2690
sg13
Vmax-area-of-island
p2691
ssV698
p2692
(dp2693
g4
g2692
sg5
VPartition to K Equal Sum Subsets
p2694
sg7
V\u4e2d\u7b49
p2695
sg9
V29.1%
p2696
sg11
V\u5212\u5206\u4e3ak\u4e2a\u76f8\u7b49\u7684\u5b50\u96c6
p2697
sg13
Vpartition-to-k-equal-sum-subsets
p2698
ssV699
p2699
(dp2700
g4
g2699
sg5
VFalling Squares
p2701
sg7
V\u56f0\u96be
p2702
sg9
V51.2%
p2703
sg11
V\u6389\u843d\u7684\u65b9\u5757
p2704
sg13
Vfalling-squares
p2705
ssV542
p2706
(dp2707
g4
g2706
sg5
V01 Matrix
p2708
sg7
V\u4e2d\u7b49
p2709
sg9
V26.8%
p2710
sg11
V01 \u77e9\u9635
p2711
sg13
V01-matrix
p2712
ssV543
p2713
(dp2714
g4
g2713
sg5
VDiameter of Binary Tree
p2715
sg7
V\u7b80\u5355
p2716
sg9
V37.3%
p2717
sg11
V\u4e8c\u53c9\u6811\u7684\u76f4\u5f84
p2718
sg13
Vdiameter-of-binary-tree
p2719
ssV540
p2720
(dp2721
g4
g2720
sg5
VSingle Element in a Sorted Array
p2722
sg7
V\u4e2d\u7b49
p2723
sg9
V53.0%
p2724
sg11
V\u6709\u5e8f\u6570\u7ec4\u4e2d\u7684\u5355\u4e00\u5143\u7d20
p2725
sg13
Vsingle-element-in-a-sorted-array
p2726
ssV541
p2727
(dp2728
g4
g2727
sg5
VReverse String II
p2729
sg7
V\u7b80\u5355
p2730
sg9
V39.2%
p2731
sg11
V\u53cd\u8f6c\u5b57\u7b26\u4e32 II
p2732
sg13
Vreverse-string-ii
p2733
ssV546
p2734
(dp2735
g4
g2734
sg5
VRemove Boxes
p2736
sg7
V\u56f0\u96be
p2737
sg9
V42.0%
p2738
sg11
V\u79fb\u9664\u76d2\u5b50
p2739
sg13
Vremove-boxes
p2740
ssV547
p2741
(dp2742
g4
g2741
sg5
VFriend Circles
p2743
sg7
V\u4e2d\u7b49
p2744
sg9
V42.4%
p2745
sg11
V\u670b\u53cb\u5708
p2746
sg13
Vfriend-circles
p2747
ssV8
(dp2748
g4
V8
sg5
VString to Integer (atoi)
p2749
sg7
V\u4e2d\u7b49
p2750
sg9
V15.6%
p2751
sg11
V\u5b57\u7b26\u4e32\u8f6c\u6574\u6570 (atoi)
p2752
sg13
Vstring-to-integer-atoi
p2753
ssV598
p2754
(dp2755
g4
g2754
sg5
VRange Addition II
p2756
sg7
V\u7b80\u5355
p2757
sg9
V40.5%
p2758
sg11
V\u8303\u56f4\u6c42\u548c II
p2759
sg13
Vrange-addition-ii
p2760
ssV869
p2761
(dp2762
g4
g2761
sg5
VReordered Power of 2
p2763
sg7
V\u4e2d\u7b49
p2764
sg9
V36.2%
p2765
sg11
V\u91cd\u65b0\u6392\u5e8f\u5f97\u5230 2 \u7684\u5e42
p2766
sg13
Vreordered-power-of-2
p2767
ssV868
p2768
(dp2769
g4
g2768
sg5
VBinary Gap
p2770
sg7
V\u7b80\u5355
p2771
sg9
V53.5%
p2772
sg11
V\u4e8c\u8fdb\u5236\u95f4\u8ddd
p2773
sg13
Vbinary-gap
p2774
ssV120
p2775
(dp2776
g4
g2775
sg5
VTriangle
p2777
sg7
V\u4e2d\u7b49
p2778
sg9
V48.8%
p2779
sg11
V\u4e09\u89d2\u5f62\u6700\u5c0f\u8def\u5f84\u548c
p2780
sg13
Vtriangle
p2781
ssV121
p2782
(dp2783
g4
g2782
sg5
VBest Time to Buy and Sell Stock
p2784
sg7
V\u7b80\u5355
p2785
sg9
V42.9%
p2786
sg11
V\u4e70\u5356\u80a1\u7968\u7684\u6700\u4f73\u65f6\u673a
p2787
sg13
Vbest-time-to-buy-and-sell-stock
p2788
ssV122
p2789
(dp2790
g4
g2789
sg5
VBest Time to Buy and Sell Stock II
p2791
sg7
V\u7b80\u5355
p2792
sg9
V46.7%
p2793
sg11
V\u4e70\u5356\u80a1\u7968\u7684\u6700\u4f73\u65f6\u673a II
p2794
sg13
Vbest-time-to-buy-and-sell-stock-ii
p2795
ssV123
p2796
(dp2797
g4
g2796
sg5
VBest Time to Buy and Sell Stock III
p2798
sg7
V\u56f0\u96be
p2799
sg9
V27.7%
p2800
sg11
V\u4e70\u5356\u80a1\u7968\u7684\u6700\u4f73\u65f6\u673a III
p2801
sg13
Vbest-time-to-buy-and-sell-stock-iii
p2802
ssV124
p2803
(dp2804
g4
g2803
sg5
VBinary Tree Maximum Path Sum
p2805
sg7
V\u56f0\u96be
p2806
sg9
V29.3%
p2807
sg11
V\u4e8c\u53c9\u6811\u4e2d\u7684\u6700\u5927\u8def\u5f84\u548c
p2808
sg13
Vbinary-tree-maximum-path-sum
p2809
ssV125
p2810
(dp2811
g4
g2810
sg5
VValid Palindrome
p2812
sg7
V\u7b80\u5355
p2813
sg9
V33.6%
p2814
sg11
V\u9a8c\u8bc1\u56de\u6587\u4e32
p2815
sg13
Vvalid-palindrome
p2816
ssV126
p2817
(dp2818
g4
g2817
sg5
VWord Ladder II
p2819
sg7
V\u56f0\u96be
p2820
sg9
V20.0%
p2821
sg11
V\u5355\u8bcd\u63a5\u9f99 II
p2822
sg13
Vword-ladder-ii
p2823
ssV127
p2824
(dp2825
g4
g2824
sg5
VWord Ladder
p2826
sg7
V\u4e2d\u7b49
p2827
sg9
V23.9%
p2828
sg11
V\u5355\u8bcd\u63a5\u9f99
p2829
sg13
Vword-ladder
p2830
ssV128
p2831
(dp2832
g4
g2831
sg5
VLongest Consecutive Sequence
p2833
sg7
V\u56f0\u96be
p2834
sg9
V38.4%
p2835
sg11
V\u6700\u957f\u8fde\u7eed\u5e8f\u5217
p2836
sg13
Vlongest-consecutive-sequence
p2837
ssV129
p2838
(dp2839
g4
g2838
sg5
VSum Root to Leaf Numbers
p2840
sg7
V\u4e2d\u7b49
p2841
sg9
V48.7%
p2842
sg11
V\u6c42\u6839\u5230\u53f6\u5b50\u8282\u70b9\u6570\u5b57\u4e4b\u548c
p2843
sg13
Vsum-root-to-leaf-numbers
p2844
ssV765
p2845
(dp2846
g4
g2845
sg5
VCouples Holding Hands
p2847
sg7
V\u56f0\u96be
p2848
sg9
V52.7%
p2849
sg11
V\u60c5\u4fa3\u7275\u624b
p2850
sg13
Vcouples-holding-hands
p2851
ssV414
p2852
(dp2853
g4
g2852
sg5
VThird Maximum Number
p2854
sg7
V\u7b80\u5355
p2855
sg9
V28.3%
p2856
sg11
V\u7b2c\u4e09\u5927\u7684\u6570
p2857
sg13
Vthird-maximum-number
p2858
ssV415
p2859
(dp2860
g4
g2859
sg5
VAdd Strings
p2861
sg7
V\u7b80\u5355
p2862
sg9
V38.9%
p2863
sg11
V\u5b57\u7b26\u4e32\u76f8\u52a0
p2864
sg13
Vadd-strings
p2865
ssV416
p2866
(dp2867
g4
g2866
sg5
VPartition Equal Subset Sum
p2868
sg7
V\u4e2d\u7b49
p2869
sg9
V31.9%
p2870
sg11
V\u5206\u5272\u7b49\u548c\u5b50\u96c6
p2871
sg13
Vpartition-equal-subset-sum
p2872
ssV417
p2873
(dp2874
g4
g2873
sg5
VPacific Atlantic Water Flow
p2875
sg7
V\u4e2d\u7b49
p2876
sg9
V33.3%
p2877
sg11
V\u592a\u5e73\u6d0b\u5927\u897f\u6d0b\u6c34\u6d41\u95ee\u9898
p2878
sg13
Vpacific-atlantic-water-flow
p2879
ssV410
p2880
(dp2881
g4
g2880
sg5
VSplit Array Largest Sum
p2882
sg7
V\u56f0\u96be
p2883
sg9
V28.1%
p2884
sg11
V\u5206\u5272\u6570\u7ec4\u7684\u6700\u5927\u503c
p2885
sg13
Vsplit-array-largest-sum
p2886
ssV412
p2887
(dp2888
g4
g2887
sg5
VFizz Buzz
p2889
sg7
V\u7b80\u5355
p2890
sg9
V54.6%
p2891
sg11
VFizz Buzz
p2892
sg13
Vfizz-buzz
p2893
ssV413
p2894
(dp2895
g4
g2894
sg5
VArithmetic Slices
p2896
sg7
V\u4e2d\u7b49
p2897
sg9
V51.9%
p2898
sg11
V\u7b49\u5dee\u6570\u5217\u5212\u5206
p2899
sg13
Varithmetic-slices
p2900
ssV498
p2901
(dp2902
g4
g2901
sg5
VDiagonal Traverse
p2903
sg7
V\u4e2d\u7b49
p2904
sg9
V27.6%
p2905
sg11
V\u5bf9\u89d2\u7ebf\u904d\u5386
p2906
sg13
Vdiagonal-traverse
p2907
ssV419
p2908
(dp2909
g4
g2908
sg5
VBattleships in a Board
p2910
sg7
V\u4e2d\u7b49
p2911
sg9
V50.0%
p2912
sg11
V\u7532\u677f\u4e0a\u7684\u6218\u8230
p2913
sg13
Vbattleships-in-a-board
p2914
ssV319
p2915
(dp2916
g4
g2915
sg5
VBulb Switcher
p2917
sg7
V\u4e2d\u7b49
p2918
sg9
V28.7%
p2919
sg11
V\u706f\u6ce1\u5f00\u5173
p2920
sg13
Vbulb-switcher
p2921
ssV318
p2922
(dp2923
g4
g2922
sg5
VMaximum Product of Word Lengths
p2924
sg7
V\u4e2d\u7b49
p2925
sg9
V45.2%
p2926
sg11
V\u6700\u5927\u5355\u8bcd\u957f\u5ea6\u4e58\u79ef
p2927
sg13
Vmaximum-product-of-word-lengths
p2928
ssV313
p2929
(dp2930
g4
g2929
sg5
VSuper Ugly Number
p2931
sg7
V\u4e2d\u7b49
p2932
sg9
V40.3%
p2933
sg11
V\u8d85\u7ea7\u4e11\u6570
p2934
sg13
Vsuper-ugly-number
p2935
ssV312
p2936
(dp2937
g4
g2936
sg5
VBurst Balloons
p2938
sg7
V\u56f0\u96be
p2939
sg9
V37.8%
p2940
sg11
V\u6233\u6c14\u7403
p2941
sg13
Vburst-balloons
p2942
ssV861
p2943
(dp2944
g4
g2943
sg5
VScore After Flipping Matrix
p2945
sg7
V\u4e2d\u7b49
p2946
sg9
V63.2%
p2947
sg11
V\u7ffb\u8f6c\u77e9\u9635\u540e\u7684\u5f97\u5206
p2948
sg13
Vscore-after-flipping-matrix
p2949
ssV310
p2950
(dp2951
g4
g2950
sg5
VMinimum Height Trees
p2952
sg7
V\u4e2d\u7b49
p2953
sg9
V27.9%
p2954
sg11
V\u6700\u5c0f\u9ad8\u5ea6\u6811
p2955
sg13
Vminimum-height-trees
p2956
ssV316
p2957
(dp2958
g4
g2957
sg5
VRemove Duplicate Letters
p2959
sg7
V\u56f0\u96be
p2960
sg9
V19.2%
p2961
sg11
V\u53bb\u9664\u91cd\u590d\u5b57\u6bcd
p2962
sg13
Vremove-duplicate-letters
p2963
ssV315
p2964
(dp2965
g4
g2964
sg5
VCount of Smaller Numbers After Self
p2966
sg7
V\u56f0\u96be
p2967
sg9
V31.1%
p2968
sg11
V\u8ba1\u7b97\u53f3\u4fa7\u5c0f\u4e8e\u5f53\u524d\u5143\u7d20\u7684\u4e2a\u6570
p2969
sg13
Vcount-of-smaller-numbers-after-self
p2970
ssV496
p2971
(dp2972
g4
g2971
sg5
VNext Greater Element I
p2973
sg7
V\u7b80\u5355
p2974
sg9
V53.4%
p2975
sg11
V\u4e0b\u4e00\u4e2a\u66f4\u5927\u5143\u7d20 I
p2976
sg13
Vnext-greater-element-i
p2977
ssV832
p2978
(dp2979
g4
g2978
sg5
VFlipping an Image
p2980
sg7
V\u7b80\u5355
p2981
sg9
V65.1%
p2982
sg11
V\u7ffb\u8f6c\u56fe\u50cf
p2983
sg13
Vflipping-an-image
p2984
ssV833
p2985
(dp2986
g4
g2985
sg5
VFind And Replace in String
p2987
sg7
V\u4e2d\u7b49
p2988
sg9
V20.9%
p2989
sg11
VFind And Replace in String
p2990
sg13
Vfind-and-replace-in-string
p2991
ssV830
p2992
(dp2993
g4
g2992
sg5
VPositions of Large Groups
p2994
sg7
V\u7b80\u5355
p2995
sg9
V37.9%
p2996
sg11
V\u8f83\u5927\u5206\u7ec4\u7684\u4f4d\u7f6e
p2997
sg13
Vpositions-of-large-groups
p2998
ssV831
p2999
(dp3000
g4
g2999
sg5
VMasking Personal Information
p3001
sg7
V\u4e2d\u7b49
p3002
sg9
V27.2%
p3003
sg11
V\u9690\u85cf\u4e2a\u4eba\u4fe1\u606f
p3004
sg13
Vmasking-personal-information
p3005
ssV836
p3006
(dp3007
g4
g3006
sg5
VRectangle Overlap
p3008
sg7
V\u7b80\u5355
p3009
sg9
V33.0%
p3010
sg11
V\u77e9\u5f62\u91cd\u53e0
p3011
sg13
Vrectangle-overlap
p3012
ssV837
p3013
(dp3014
g4
g3013
sg5
VNew 21 Game
p3015
sg7
V\u4e2d\u7b49
p3016
sg9
V12.9%
p3017
sg11
V\u65b021\u70b9
p3018
sg13
Vnew-21-game
p3019
ssV834
p3020
(dp3021
g4
g3020
sg5
VSum of Distances in Tree
p3022
sg7
V\u56f0\u96be
p3023
sg9
V16.3%
p3024
sg11
V\u6811\u4e2d\u8ddd\u79bb\u4e4b\u548c
p3025
sg13
Vsum-of-distances-in-tree
p3026
ssV835
p3027
(dp3028
g4
g3027
sg5
VImage Overlap
p3029
sg7
V\u4e2d\u7b49
p3030
sg9
V47.7%
p3031
sg11
V\u56fe\u50cf\u91cd\u53e0
p3032
sg13
Vimage-overlap
p3033
ssV838
p3034
(dp3035
g4
g3034
sg5
VPush Dominoes
p3036
sg7
V\u4e2d\u7b49
p3037
sg9
V29.2%
p3038
sg11
V\u63a8\u591a\u7c73\u8bfa
p3039
sg13
Vpush-dominoes
p3040
ssV839
p3041
(dp3042
g4
g3041
sg5
VSimilar String Groups
p3043
sg7
V\u56f0\u96be
p3044
sg9
V15.4%
p3045
sg11
V\u76f8\u4f3c\u5b57\u7b26\u4e32\u7ec4
p3046
sg13
Vsimilar-string-groups
p3047
ssV808
p3048
(dp3049
g4
g3048
sg5
VSoup Servings
p3050
sg7
V\u4e2d\u7b49
p3051
sg9
V27.3%
p3052
sg11
V\u5206\u6c64
p3053
sg13
Vsoup-servings
p3054
ssV3
(dp3055
g4
V3
sg5
VLongest Substring Without Repeating Characters
p3056
sg7
V\u4e2d\u7b49
p3057
sg9
V23.9%
p3058
sg11
V\u65e0\u91cd\u590d\u5b57\u7b26\u7684\u6700\u957f\u5b50\u4e32
p3059
sg13
Vlongest-substring-without-repeating-characters
p3060
ssV725
p3061
(dp3062
g4
g3061
sg5
VSplit Linked List in Parts
p3063
sg7
V\u4e2d\u7b49
p3064
sg9
V41.2%
p3065
sg11
VSplit Linked List in Parts
p3066
sg13
Vsplit-linked-list-in-parts
p3067
ssV368
p3068
(dp3069
g4
g3068
sg5
VLargest Divisible Subset
p3070
sg7
V\u4e2d\u7b49
p3071
sg9
V28.6%
p3072
sg11
V\u6700\u5927\u6574\u9664\u5b50\u96c6
p3073
sg13
Vlargest-divisible-subset
p3074
ssV367
p3075
(dp3076
g4
g3075
sg5
VValid Perfect Square
p3077
sg7
V\u7b80\u5355
p3078
sg9
V37.0%
p3079
sg11
V\u6709\u6548\u7684\u5b8c\u5168\u5e73\u65b9\u6570
p3080
sg13
Vvalid-perfect-square
p3081
ssV365
p3082
(dp3083
g4
g3082
sg5
VWater and Jug Problem
p3084
sg7
V\u4e2d\u7b49
p3085
sg9
V16.0%
p3086
sg11
V\u6c34\u58f6\u95ee\u9898
p3087
sg13
Vwater-and-jug-problem
p3088
ssV363
p3089
(dp3090
g4
g3089
sg5
VMax Sum of Rectangle No Larger Than K
p3091
sg7
V\u56f0\u96be
p3092
sg9
V29.3%
p3093
sg11
V\u77e9\u5f62\u533a\u57df\u4e0d\u8d85\u8fc7 K \u7684\u6700\u5927\u6570\u503c\u548c
p3094
sg13
Vmax-sum-of-rectangle-no-larger-than-k
p3095
ssV380
p3096
(dp3097
g4
g3096
sg5
VInsert Delete GetRandom O(1)
p3098
sg7
V\u4e2d\u7b49
p3099
sg9
V36.9%
p3100
sg11
V\u5e38\u6570\u65f6\u95f4\u63d2\u5165\u3001\u5220\u9664\u548c\u83b7\u53d6\u968f\u673a\u5143\u7d20
p3101
sg13
Vinsert-delete-getrandom-o1
p3102
ssV381
p3103
(dp3104
g4
g3103
sg5
VInsert Delete GetRandom O(1) - Duplicates allowed
p3105
sg7
V\u56f0\u96be
p3106
sg9
V28.1%
p3107
sg11
VO(1) \u65f6\u95f4\u63d2\u5165\u3001\u5220\u9664\u548c\u83b7\u53d6\u968f\u673a\u5143\u7d20 - \u5141\u8bb8\u91cd\u590d
p3108
sg13
Vinsert-delete-getrandom-o1-duplicates-allowed
p3109
ssV382
p3110
(dp3111
g4
g3110
sg5
VLinked List Random Node
p3112
sg7
V\u4e2d\u7b49
p3113
sg9
V48.0%
p3114
sg11
V\u94fe\u8868\u968f\u673a\u8282\u70b9
p3115
sg13
Vlinked-list-random-node
p3116
ssV383
p3117
(dp3118
g4
g3117
sg5
VRansom Note
p3119
sg7
V\u7b80\u5355
p3120
sg9
V40.0%
p3121
sg11
V\u8d4e\u91d1\u4fe1
p3122
sg13
Vransom-note
p3123
ssV384
p3124
(dp3125
g4
g3124
sg5
VShuffle an Array
p3126
sg7
V\u4e2d\u7b49
p3127
sg9
V40.0%
p3128
sg11
V\u6253\u4e71\u6570\u7ec4
p3129
sg13
Vshuffle-an-array
p3130
ssV385
p3131
(dp3132
g4
g3131
sg5
VMini Parser
p3133
sg7
V\u4e2d\u7b49
p3134
sg9
V37.4%
p3135
sg11
VMini Parser
p3136
sg13
Vmini-parser
p3137
ssV386
p3138
(dp3139
g4
g3138
sg5
VLexicographical Numbers
p3140
sg7
V\u4e2d\u7b49
p3141
sg9
V37.9%
p3142
sg11
V\u5b57\u5178\u5e8f\u6392\u6570
p3143
sg13
Vlexicographical-numbers
p3144
ssV387
p3145
(dp3146
g4
g3145
sg5
VFirst Unique Character in a String
p3147
sg7
V\u7b80\u5355
p3148
sg9
V32.4%
p3149
sg11
V\u5b57\u7b26\u4e32\u4e2d\u7684\u7b2c\u4e00\u4e2a\u552f\u4e00\u5b57\u7b26
p3150
sg13
Vfirst-unique-character-in-a-string
p3151
ssV388
p3152
(dp3153
g4
g3152
sg5
VLongest Absolute File Path
p3154
sg7
V\u4e2d\u7b49
p3155
sg9
V32.7%
p3156
sg11
V\u6587\u4ef6\u7684\u6700\u957f\u7edd\u5bf9\u8def\u5f84
p3157
sg13
Vlongest-absolute-file-path
p3158
ssV389
p3159
(dp3160
g4
g3159
sg5
VFind the Difference
p3161
sg7
V\u7b80\u5355
p3162
sg9
V49.5%
p3163
sg11
V\u627e\u4e0d\u540c
p3164
sg13
Vfind-the-difference
p3165
ssV784
p3166
(dp3167
g4
g3166
sg5
VLetter Case Permutation
p3168
sg7
V\u7b80\u5355
p3169
sg9
V40.0%
p3170
sg11
V\u5b57\u6bcd\u5927\u5c0f\u5199\u5168\u6392\u5217
p3171
sg13
Vletter-case-permutation
p3172
ssV785
p3173
(dp3174
g4
g3173
sg5
VIs Graph Bipartite?
p3175
sg7
V\u4e2d\u7b49
p3176
sg9
V25.6%
p3177
sg11
V\u5224\u65ad\u4e8c\u5206\u56fe
p3178
sg13
Vis-graph-bipartite
p3179
ssV786
p3180
(dp3181
g4
g3180
sg5
VK-th Smallest Prime Fraction
p3182
sg7
V\u56f0\u96be
p3183
sg9
V30.6%
p3184
sg11
VK-th Smallest Prime Fraction
p3185
sg13
Vk-th-smallest-prime-fraction
p3186
ssV787
p3187
(dp3188
g4
g3187
sg5
VCheapest Flights Within K Stops
p3189
sg7
V\u4e2d\u7b49
p3190
sg9
V28.4%
p3191
sg11
VK \u7ad9\u4e2d\u8f6c\u5185\u6700\u4fbf\u5b9c\u7684\u822a\u73ed
p3192
sg13
Vcheapest-flights-within-k-stops
p3193
ssV780
p3194
(dp3195
g4
g3194
sg5
VReaching Points
p3196
sg7
V\u56f0\u96be
p3197
sg9
V17.0%
p3198
sg11
VReaching Points
p3199
sg13
Vreaching-points
p3200
ssV781
p3201
(dp3202
g4
g3201
sg5
VRabbits in Forest
p3203
sg7
V\u4e2d\u7b49
p3204
sg9
V37.8%
p3205
sg11
V\u68ee\u6797\u4e2d\u7684\u5154\u5b50
p3206
sg13
Vrabbits-in-forest
p3207
ssV782
p3208
(dp3209
g4
g3208
sg5
VTransform to Chessboard
p3210
sg7
V\u56f0\u96be
p3211
sg9
V50.0%
p3212
sg11
VTransform to Chessboard
p3213
sg13
Vtransform-to-chessboard
p3214
ssV783
p3215
(dp3216
g4
g3215
sg5
VMinimum Distance Between BST Nodes
p3217
sg7
V\u7b80\u5355
p3218
sg9
V45.0%
p3219
sg11
V\u4e8c\u53c9\u641c\u7d22\u6811\u7ed3\u70b9\u6700\u5c0f\u8ddd\u79bb
p3220
sg13
Vminimum-distance-between-bst-nodes
p3221
ssV788
p3222
(dp3223
g4
g3222
sg5
VRotated Digits
p3224
sg7
V\u7b80\u5355
p3225
sg9
V45.8%
p3226
sg11
V\u65cb\u8f6c\u6570\u5b57
p3227
sg13
Vrotated-digits
p3228
ssV789
p3229
(dp3230
g4
g3229
sg5
VEscape The Ghosts
p3231
sg7
V\u4e2d\u7b49
p3232
sg9
V55.9%
p3233
sg11
V\u9003\u8131\u963b\u788d\u8005
p3234
sg13
Vescape-the-ghosts
p3235
ssV860
p3236
(dp3237
g4
g3236
sg5
VLemonade Change
p3238
sg7
V\u7b80\u5355
p3239
sg9
V46.0%
p3240
sg11
V\u67e0\u6aac\u6c34\u627e\u96f6
p3241
sg13
Vlemonade-change
p3242
ssV605
p3243
(dp3244
g4
g3243
sg5
VCan Place Flowers
p3245
sg7
V\u7b80\u5355
p3246
sg9
V23.1%
p3247
sg11
V\u79cd\u82b1\u95ee\u9898
p3248
sg13
Vcan-place-flowers
p3249
ssV572
p3250
(dp3251
g4
g3250
sg5
VSubtree of Another Tree
p3252
sg7
V\u7b80\u5355
p3253
sg9
V38.4%
p3254
sg11
V\u53e6\u4e00\u4e2a\u6811\u7684\u5b50\u6811
p3255
sg13
Vsubtree-of-another-tree
p3256
ssV576
p3257
(dp3258
g4
g3257
sg5
VOut of Boundary Paths
p3259
sg7
V\u4e2d\u7b49
p3260
sg9
V22.0%
p3261
sg11
V\u51fa\u754c\u7684\u8def\u5f84\u6570
p3262
sg13
Vout-of-boundary-paths
p3263
ssV575
p3264
(dp3265
g4
g3264
sg5
VDistribute Candies
p3266
sg7
V\u7b80\u5355
p3267
sg9
V52.5%
p3268
sg11
V\u5206\u7cd6\u679c
p3269
sg13
Vdistribute-candies
p3270
ssV60
p3271
(dp3272
g4
g3271
sg5
VPermutation Sequence
p3273
sg7
V\u4e2d\u7b49
p3274
sg9
V40.5%
p3275
sg11
V\u7b2ck\u4e2a\u6392\u5217
p3276
sg13
Vpermutation-sequence
p3277
ssV61
p3278
(dp3279
g4
g3278
sg5
VRotate List
p3280
sg7
V\u4e2d\u7b49
p3281
sg9
V32.5%
p3282
sg11
V\u65cb\u8f6c\u94fe\u8868
p3283
sg13
Vrotate-list
p3284
ssV258
p3285
(dp3286
g4
g3285
sg5
VAdd Digits
p3287
sg7
V\u7b80\u5355
p3288
sg9
V55.9%
p3289
sg11
V\u5404\u4f4d\u76f8\u52a0
p3290
sg13
Vadd-digits
p3291
ssV63
p3292
(dp3293
g4
g3292
sg5
VUnique Paths II
p3294
sg7
V\u4e2d\u7b49
p3295
sg9
V30.1%
p3296
sg11
V\u4e0d\u540c\u8def\u5f84 II
p3297
sg13
Vunique-paths-ii
p3298
ssV64
p3299
(dp3300
g4
g3299
sg5
VMinimum Path Sum
p3301
sg7
V\u4e2d\u7b49
p3302
sg9
V56.0%
p3303
sg11
V\u6700\u5c0f\u8def\u5f84\u548c
p3304
sg13
Vminimum-path-sum
p3305
ssV65
p3306
(dp3307
g4
g3306
sg5
VValid Number
p3308
sg7
V\u56f0\u96be
p3309
sg9
V10.3%
p3310
sg11
V\u6709\u6548\u6570\u5b57
p3311
sg13
Vvalid-number
p3312
ssV66
p3313
(dp3314
g4
g3313
sg5
VPlus One
p3315
sg7
V\u7b80\u5355
p3316
sg9
V35.1%
p3317
sg11
V\u52a0\u4e00
p3318
sg13
Vplus-one
p3319
ssV67
p3320
(dp3321
g4
g3320
sg5
VAdd Binary
p3322
sg7
V\u7b80\u5355
p3323
sg9
V41.3%
p3324
sg11
V\u4e8c\u8fdb\u5236\u6c42\u548c
p3325
sg13
Vadd-binary
p3326
ssV68
p3327
(dp3328
g4
g3327
sg5
VText Justification
p3329
sg7
V\u56f0\u96be
p3330
sg9
V28.7%
p3331
sg11
V\u6587\u672c\u5de6\u53f3\u5bf9\u9f50
p3332
sg13
Vtext-justification
p3333
ssV69
p3334
(dp3335
g4
g3334
sg5
VSqrt(x)
p3336
sg7
V\u7b80\u5355
p3337
sg9
V31.3%
p3338
sg11
Vx \u7684\u5e73\u65b9\u6839
p3339
sg13
Vsqrtx
p3340
ssV257
p3341
(dp3342
g4
g3341
sg5
VBinary Tree Paths
p3343
sg7
V\u7b80\u5355
p3344
sg9
V51.4%
p3345
sg11
V\u4e8c\u53c9\u6811\u7684\u6240\u6709\u8def\u5f84
p3346
sg13
Vbinary-tree-paths
p3347
ssV600
p3348
(dp3349
g4
g3348
sg5
VNon-negative Integers without Consecutive Ones
p3350
sg7
V\u56f0\u96be
p3351
sg9
V15.6%
p3352
sg11
V\u4e0d\u542b\u8fde\u7eed1\u7684\u975e\u8d1f\u6574\u6570
p3353
sg13
Vnon-negative-integers-without-consecutive-ones
p3354
ssV731
p3355
(dp3356
g4
g3355
sg5
VMy Calendar II
p3357
sg7
V\u4e2d\u7b49
p3358
sg9
V41.8%
p3359
sg11
V\u6211\u7684\u65e5\u7a0b\u5b89\u6392\u8868 II
p3360
sg13
Vmy-calendar-ii
p3361
ssV730
p3362
(dp3363
g4
g3362
sg5
VCount Different Palindromic Subsequences
p3364
sg7
V\u56f0\u96be
p3365
sg9
V28.8%
p3366
sg11
V\u7edf\u8ba1\u4e0d\u540c\u56de\u6587\u5b50\u5b57\u7b26\u4e32
p3367
sg13
Vcount-different-palindromic-subsequences
p3368
ssV733
p3369
(dp3370
g4
g3369
sg5
VFlood Fill
p3371
sg7
V\u7b80\u5355
p3372
sg9
V43.3%
p3373
sg11
V\u56fe\u50cf\u6e32\u67d3
p3374
sg13
Vflood-fill
p3375
ssV732
p3376
(dp3377
g4
g3376
sg5
VMy Calendar III
p3378
sg7
V\u56f0\u96be
p3379
sg9
V33.0%
p3380
sg11
V\u6211\u7684\u65e5\u7a0b\u5b89\u6392\u8868 III
p3381
sg13
Vmy-calendar-iii
p3382
ssV735
p3383
(dp3384
g4
g3383
sg5
VAsteroid Collision
p3385
sg7
V\u4e2d\u7b49
p3386
sg9
V27.0%
p3387
sg11
V\u884c\u661f\u78b0\u649e
p3388
sg13
Vasteroid-collision
p3389
ssV508
p3390
(dp3391
g4
g3390
sg5
VMost Frequent Subtree Sum
p3392
sg7
V\u4e2d\u7b49
p3393
sg9
V51.6%
p3394
sg11
V\u51fa\u73b0\u6b21\u6570\u6700\u591a\u7684\u5b50\u6811\u5143\u7d20\u548c
p3395
sg13
Vmost-frequent-subtree-sum
p3396
ssV736
p3397
(dp3398
g4
g3397
sg5
VParse Lisp Expression
p3399
sg7
V\u56f0\u96be
p3400
sg9
V45.2%
p3401
sg11
VLisp \u8bed\u6cd5\u89e3\u6790
p3402
sg13
Vparse-lisp-expression
p3403
ssV506
p3404
(dp3405
g4
g3404
sg5
VRelative Ranks
p3406
sg7
V\u7b80\u5355
p3407
sg9
V43.7%
p3408
sg11
V\u76f8\u5bf9\u540d\u6b21
p3409
sg13
Vrelative-ranks
p3410
ssV507
p3411
(dp3412
g4
g3411
sg5
VPerfect Number
p3413
sg7
V\u7b80\u5355
p3414
sg9
V27.3%
p3415
sg11
V\u5b8c\u7f8e\u6570
p3416
sg13
Vperfect-number
p3417
ssV504
p3418
(dp3419
g4
g3418
sg5
VBase 7
p3420
sg7
V\u7b80\u5355
p3421
sg9
V38.3%
p3422
sg11
V\u4e03\u8fdb\u5236\u6570
p3423
sg13
Vbase-7
p3424
ssV502
p3425
(dp3426
g4
g3425
sg5
VIPO
p3427
sg7
V\u56f0\u96be
p3428
sg9
V30.4%
p3429
sg11
VIPO
p3430
sg13
Vipo
p3431
ssV503
p3432
(dp3433
g4
g3432
sg5
VNext Greater Element II
p3434
sg7
V\u4e2d\u7b49
p3435
sg9
V38.7%
p3436
sg11
V\u4e0b\u4e00\u4e2a\u66f4\u5927\u5143\u7d20 II
p3437
sg13
Vnext-greater-element-ii
p3438
ssV500
p3439
(dp3440
g4
g3439
sg5
VKeyboard Row
p3441
sg7
V\u7b80\u5355
p3442
sg9
V61.7%
p3443
sg11
V\u952e\u76d8\u884c
p3444
sg13
Vkeyboard-row
p3445
ssV501
p3446
(dp3447
g4
g3446
sg5
VFind Mode in Binary Search Tree
p3448
sg7
V\u7b80\u5355
p3449
sg9
V36.4%
p3450
sg11
V\u4e8c\u53c9\u641c\u7d22\u6811\u4e2d\u7684\u4f17\u6570
p3451
sg13
Vfind-mode-in-binary-search-tree
p3452
ssV630
p3453
(dp3454
g4
g3453
sg5
VCourse Schedule III
p3455
sg7
V\u56f0\u96be
p3456
sg9
V19.4%
p3457
sg11
V\u8bfe\u7a0b\u8868 III
p3458
sg13
Vcourse-schedule-iii
p3459
ssV632
p3460
(dp3461
g4
g3460
sg5
VSmallest Range
p3462
sg7
V\u56f0\u96be
p3463
sg9
V31.8%
p3464
sg11
V\u6700\u5c0f\u533a\u95f4
p3465
sg13
Vsmallest-range
p3466
ssV633
p3467
(dp3468
g4
g3467
sg5
VSum of Square Numbers
p3469
sg7
V\u7b80\u5355
p3470
sg9
V23.0%
p3471
sg11
V\u5e73\u65b9\u6570\u4e4b\u548c
p3472
sg13
Vsum-of-square-numbers
p3473
ssV468
p3474
(dp3475
g4
g3474
sg5
VValidate IP Address
p3476
sg7
V\u4e2d\u7b49
p3477
sg9
V14.1%
p3478
sg11
V\u9a8c\u8bc1IP\u5730\u5740
p3479
sg13
Vvalidate-ip-address
p3480
ssV636
p3481
(dp3482
g4
g3481
sg5
VExclusive Time of Functions
p3483
sg7
V\u4e2d\u7b49
p3484
sg9
V38.8%
p3485
sg11
V\u51fd\u6570\u7684\u72ec\u5360\u65f6\u95f4
p3486
sg13
Vexclusive-time-of-functions
p3487
ssV637
p3488
(dp3489
g4
g3488
sg5
VAverage of Levels in Binary Tree
p3490
sg7
V\u7b80\u5355
p3491
sg9
V53.2%
p3492
sg11
V\u4e8c\u53c9\u6811\u7684\u5c42\u5e73\u5747\u503c
p3493
sg13
Vaverage-of-levels-in-binary-tree
p3494
ssV638
p3495
(dp3496
g4
g3495
sg5
VShopping Offers
p3497
sg7
V\u4e2d\u7b49
p3498
sg9
V44.4%
p3499
sg11
V\u5927\u793c\u5305
p3500
sg13
Vshopping-offers
p3501
ssV464
p3502
(dp3503
g4
g3502
sg5
VCan I Win
p3504
sg7
V\u4e2d\u7b49
p3505
sg9
V24.2%
p3506
sg11
V\u6211\u80fd\u8d62\u5417
p3507
sg13
Vcan-i-win
p3508
ssV467
p3509
(dp3510
g4
g3509
sg5
VUnique Substrings in Wraparound String
p3511
sg7
V\u4e2d\u7b49
p3512
sg9
V36.2%
p3513
sg11
VUnique Substrings in Wraparound String
p3514
sg13
Vunique-substrings-in-wraparound-string
p3515
ssV466
p3516
(dp3517
g4
g3516
sg5
VCount The Repetitions
p3518
sg7
V\u56f0\u96be
p3519
sg9
V30.1%
p3520
sg11
V\u7edf\u8ba1\u91cd\u590d\u4e2a\u6570
p3521
sg13
Vcount-the-repetitions
p3522
ssV461
p3523
(dp3524
g4
g3523
sg5
VHamming Distance
p3525
sg7
V\u7b80\u5355
p3526
sg9
V64.6%
p3527
sg11
V\u6c49\u660e\u8ddd\u79bb
p3528
sg13
Vhamming-distance
p3529
ssV460
p3530
(dp3531
g4
g3530
sg5
VLFU Cache
p3532
sg7
V\u56f0\u96be
p3533
sg9
V19.7%
p3534
sg11
VLFU\u7f13\u5b58
p3535
sg13
Vlfu-cache
p3536
ssV463
p3537
(dp3538
g4
g3537
sg5
VIsland Perimeter
p3539
sg7
V\u7b80\u5355
p3540
sg9
V56.6%
p3541
sg11
V\u5c9b\u5c7f\u7684\u5468\u957f
p3542
sg13
Visland-perimeter
p3543
ssV462
p3544
(dp3545
g4
g3544
sg5
VMinimum Moves to Equal Array Elements II
p3546
sg7
V\u4e2d\u7b49
p3547
sg9
V46.4%
p3548
sg11
V\u6700\u5c11\u79fb\u52a8\u6b21\u6570\u4f7f\u6570\u7ec4\u5143\u7d20\u76f8\u7b49 II
p3549
sg13
Vminimum-moves-to-equal-array-elements-ii
p3550
ssV168
p3551
(dp3552
g4
g3551
sg5
VExcel Sheet Column Title
p3553
sg7
V\u7b80\u5355
p3554
sg9
V26.6%
p3555
sg11
VExcel\u8868\u5217\u540d\u79f0
p3556
sg13
Vexcel-sheet-column-title
p3557
ssV169
p3558
(dp3559
g4
g3558
sg5
VMajority Element
p3560
sg7
V\u7b80\u5355
p3561
sg9
V50.9%
p3562
sg11
V\u6c42\u4f17\u6570
p3563
sg13
Vmajority-element
p3564
ssV164
p3565
(dp3566
g4
g3565
sg5
VMaximum Gap
p3567
sg7
V\u56f0\u96be
p3568
sg9
V44.1%
p3569
sg11
V\u6700\u5927\u95f4\u8ddd
p3570
sg13
Vmaximum-gap
p3571
ssV165
p3572
(dp3573
g4
g3572
sg5
VCompare Version Numbers
p3574
sg7
V\u4e2d\u7b49
p3575
sg9
V21.7%
p3576
sg11
V\u6bd4\u8f83\u7248\u672c\u53f7
p3577
sg13
Vcompare-version-numbers
p3578
ssV166
p3579
(dp3580
g4
g3579
sg5
VFraction to Recurring Decimal
p3581
sg7
V\u4e2d\u7b49
p3582
sg9
V19.6%
p3583
sg11
V\u5206\u6570\u5230\u5c0f\u6570
p3584
sg13
Vfraction-to-recurring-decimal
p3585
ssV167
p3586
(dp3587
g4
g3586
sg5
VTwo Sum II - Input array is sorted
p3588
sg7
V\u7b80\u5355
p3589
sg9
V39.5%
p3590
sg11
V\u4e24\u6570\u4e4b\u548c II - \u8f93\u5165\u6709\u5e8f\u6570\u7ec4
p3591
sg13
Vtwo-sum-ii-input-array-is-sorted
p3592
ssV160
p3593
(dp3594
g4
g3593
sg5
VIntersection of Two Linked Lists
p3595
sg7
V\u7b80\u5355
p3596
sg9
V30.1%
p3597
sg11
V\u76f8\u4ea4\u94fe\u8868
p3598
sg13
Vintersection-of-two-linked-lists
p3599
ssV162
p3600
(dp3601
g4
g3600
sg5
VFind Peak Element
p3602
sg7
V\u4e2d\u7b49
p3603
sg9
V37.4%
p3604
sg11
V\u5bfb\u627e\u5cf0\u503c
p3605
sg13
Vfind-peak-element
p3606
ssV874
p3607
(dp3608
g4
g3607
sg5
VWalking Robot Simulation
p3609
sg7
V\u7b80\u5355
p3610
sg9
V14.3%
p3611
sg11
V\u884c\u8d70\u673a\u5668\u4eba\u6a21\u62df
p3612
sg13
Vwalking-robot-simulation
p3613
ssV875
p3614
(dp3615
g4
g3614
sg5
VKoko Eating Bananas
p3616
sg7
V\u4e2d\u7b49
p3617
sg9
V20.1%
p3618
sg11
V\u7231\u5403\u9999\u8549\u7684\u73c2\u73c2
p3619
sg13
Vkoko-eating-bananas
p3620
ssV872
p3621
(dp3622
g4
g3621
sg5
VLeaf-Similar Trees
p3623
sg7
V\u7b80\u5355
p3624
sg9
V47.9%
p3625
sg11
V\u53f6\u5b50\u76f8\u4f3c\u7684\u6811
p3626
sg13
Vleaf-similar-trees
p3627
ssV873
p3628
(dp3629
g4
g3628
sg5
VLength of Longest Fibonacci Subsequence
p3630
sg7
V\u4e2d\u7b49
p3631
sg9
V28.7%
p3632
sg11
V\u6700\u957f\u7684\u6590\u6ce2\u90a3\u5951\u5b50\u5e8f\u5217\u7684\u957f\u5ea6
p3633
sg13
Vlength-of-longest-fibonacci-subsequence
p3634
ssV870
p3635
(dp3636
g4
g3635
sg5
VAdvantage Shuffle
p3637
sg7
V\u4e2d\u7b49
p3638
sg9
V27.9%
p3639
sg11
V\u4f18\u52bf\u6d17\u724c
p3640
sg13
Vadvantage-shuffle
p3641
ssV871
p3642
(dp3643
g4
g3642
sg5
VMinimum Number of Refueling Stops
p3644
sg7
V\u56f0\u96be
p3645
sg9
V18.9%
p3646
sg11
V\u6700\u4f4e\u52a0\u6cb9\u6b21\u6570
p3647
sg13
Vminimum-number-of-refueling-stops
p3648
ssV9
(dp3649
g4
V9
sg5
VPalindrome Number
p3650
sg7
V\u7b80\u5355
p3651
sg9
V51.1%
p3652
sg11
V\u56de\u6587\u6570
p3653
sg13
Vpalindrome-number
p3654
ssV647
p3655
(dp3656
g4
g3655
sg5
VPalindromic Substrings
p3657
sg7
V\u4e2d\u7b49
p3658
sg9
V48.9%
p3659
sg11
V\u56de\u6587\u5b50\u4e32
p3660
sg13
Vpalindromic-substrings
p3661
ssV649
p3662
(dp3663
g4
g3662
sg5
VDota2 Senate
p3664
sg7
V\u4e2d\u7b49
p3665
sg9
V26.7%
p3666
sg11
VDota2 \u53c2\u8bae\u9662
p3667
sg13
Vdota2-senate
p3668
ssV648
p3669
(dp3670
g4
g3669
sg5
VReplace Words
p3671
sg7
V\u4e2d\u7b49
p3672
sg9
V48.1%
p3673
sg11
V\u5355\u8bcd\u66ff\u6362
p3674
sg13
Vreplace-words
p3675
ssV357
p3676
(dp3677
g4
g3676
sg5
VCount Numbers with Unique Digits
p3678
sg7
V\u4e2d\u7b49
p3679
sg9
V35.0%
p3680
sg11
V\u8ba1\u7b97\u5404\u4e2a\u4f4d\u6570\u4e0d\u540c\u7684\u6570\u5b57\u4e2a\u6570
p3681
sg13
Vcount-numbers-with-unique-digits
p3682
ssV355
p3683
(dp3684
g4
g3683
sg5
VDesign Twitter
p3685
sg7
V\u4e2d\u7b49
p3686
sg9
V24.3%
p3687
sg11
V\u8bbe\u8ba1\u63a8\u7279
p3688
sg13
Vdesign-twitter
p3689
ssV354
p3690
(dp3691
g4
g3690
sg5
VRussian Doll Envelopes
p3692
sg7
V\u56f0\u96be
p3693
sg9
V24.4%
p3694
sg11
V\u4fc4\u7f57\u65af\u5957\u5a03\u4fe1\u5c01\u95ee\u9898
p3695
sg13
Vrussian-doll-envelopes
p3696
ssV352
p3697
(dp3698
g4
g3697
sg5
VData Stream as Disjoint Intervals
p3699
sg7
V\u56f0\u96be
p3700
sg9
V58.0%
p3701
sg11
V\u5c06\u6570\u636e\u6d41\u53d8\u4e3a\u591a\u4e2a\u4e0d\u76f8\u4ea4\u95f4\u9694
p3702
sg13
Vdata-stream-as-disjoint-intervals
p3703
ssV350
p3704
(dp3705
g4
g3704
sg5
VIntersection of Two Arrays II
p3706
sg7
V\u7b80\u5355
p3707
sg9
V32.6%
p3708
sg11
V\u4e24\u4e2a\u6570\u7ec4\u7684\u4ea4\u96c6 II
p3709
sg13
Vintersection-of-two-arrays-ii
p3710
ssV803
p3711
(dp3712
g4
g3711
sg5
VBricks Falling When Hit
p3713
sg7
V\u56f0\u96be
p3714
sg9
V12.9%
p3715
sg11
V\u6253\u7816\u5757
p3716
sg13
Vbricks-falling-when-hit
p3717
ssV802
p3718
(dp3719
g4
g3718
sg5
VFind Eventual Safe States
p3720
sg7
V\u4e2d\u7b49
p3721
sg9
V24.5%
p3722
sg11
VFind Eventual Safe States
p3723
sg13
Vfind-eventual-safe-states
p3724
ssV801
p3725
(dp3726
g4
g3725
sg5
VMinimum Swaps To Make Sequences Increasing
p3727
sg7
V\u4e2d\u7b49
p3728
sg9
V27.4%
p3729
sg11
V\u4f7f\u5e8f\u5217\u9012\u589e\u7684\u6700\u5c0f\u4ea4\u6362\u6b21\u6570
p3730
sg13
Vminimum-swaps-to-make-sequences-increasing
p3731
ssV807
p3732
(dp3733
g4
g3732
sg5
VMax Increase to Keep City Skyline
p3734
sg7
V\u4e2d\u7b49
p3735
sg9
V72.3%
p3736
sg11
V\u4fdd\u6301\u57ce\u5e02\u5929\u9645\u7ebf
p3737
sg13
Vmax-increase-to-keep-city-skyline
p3738
ssV806
p3739
(dp3740
g4
g3739
sg5
VNumber of Lines To Write String
p3741
sg7
V\u7b80\u5355
p3742
sg9
V56.8%
p3743
sg11
V\u5199\u5b57\u7b26\u4e32\u9700\u8981\u7684\u884c\u6570
p3744
sg13
Vnumber-of-lines-to-write-string
p3745
ssV805
p3746
(dp3747
g4
g3746
sg5
VSplit Array With Same Average
p3748
sg7
V\u56f0\u96be
p3749
sg9
V13.2%
p3750
sg11
V\u6570\u7ec4\u7684\u5747\u503c\u5206\u5272
p3751
sg13
Vsplit-array-with-same-average
p3752
ssV804
p3753
(dp3754
g4
g3753
sg5
VUnique Morse Code Words
p3755
sg7
V\u7b80\u5355
p3756
sg9
V63.6%
p3757
sg11
V\u552f\u4e00\u6469\u5c14\u65af\u5bc6\u7801\u8bcd
p3758
sg13
Vunique-morse-code-words
p3759
ssV216
p3760
(dp3761
g4
g3760
sg5
VCombination Sum III
p3762
sg7
V\u4e2d\u7b49
p3763
sg9
V56.5%
p3764
sg11
V\u7ec4\u5408\u603b\u548c III
p3765
sg13
Vcombination-sum-iii
p3766
ssV217
p3767
(dp3768
g4
g3767
sg5
VContains Duplicate
p3769
sg7
V\u7b80\u5355
p3770
sg9
V40.2%
p3771
sg11
V\u5b58\u5728\u91cd\u590d\u5143\u7d20
p3772
sg13
Vcontains-duplicate
p3773
ssV214
p3774
(dp3775
g4
g3774
sg5
VShortest Palindrome
p3776
sg7
V\u56f0\u96be
p3777
sg9
V28.4%
p3778
sg11
V\u6700\u77ed\u56de\u6587\u4e32
p3779
sg13
Vshortest-palindrome
p3780
ssV215
p3781
(dp3782
g4
g3781
sg5
VKth Largest Element in an Array
p3783
sg7
V\u4e2d\u7b49
p3784
sg9
V50.4%
p3785
sg11
V\u6570\u7ec4\u4e2d\u7684\u7b2cK\u4e2a\u6700\u5927\u5143\u7d20
p3786
sg13
Vkth-largest-element-in-an-array
p3787
ssV212
p3788
(dp3789
g4
g3788
sg5
VWord Search II
p3790
sg7
V\u56f0\u96be
p3791
sg9
V28.3%
p3792
sg11
V\u5355\u8bcd\u641c\u7d22 II
p3793
sg13
Vword-search-ii
p3794
ssV213
p3795
(dp3796
g4
g3795
sg5
VHouse Robber II
p3797
sg7
V\u4e2d\u7b49
p3798
sg9
V28.5%
p3799
sg11
V\u6253\u5bb6\u52ab\u820d II
p3800
sg13
Vhouse-robber-ii
p3801
ssV210
p3802
(dp3803
g4
g3802
sg5
VCourse Schedule II
p3804
sg7
V\u4e2d\u7b49
p3805
sg9
V39.0%
p3806
sg11
V\u8bfe\u7a0b\u8868 II
p3807
sg13
Vcourse-schedule-ii
p3808
ssV211
p3809
(dp3810
g4
g3809
sg5
VAdd and Search Word - Data structure design
p3811
sg7
V\u4e2d\u7b49
p3812
sg9
V37.1%
p3813
sg11
V\u6dfb\u52a0\u4e0e\u641c\u7d22\u5355\u8bcd - \u6570\u636e\u7ed3\u6784\u8bbe\u8ba1
p3814
sg13
Vadd-and-search-word-data-structure-design
p3815
ssV762
p3816
(dp3817
g4
g3816
sg5
VPrime Number of Set Bits in Binary Representation
p3818
sg7
V\u7b80\u5355
p3819
sg9
V52.3%
p3820
sg11
V\u4e8c\u8fdb\u5236\u8868\u793a\u4e2d\u8d28\u6570\u4e2a\u8ba1\u7b97\u7f6e\u4f4d
p3821
sg13
Vprime-number-of-set-bits-in-binary-representation
p3822
ssV763
p3823
(dp3824
g4
g3823
sg5
VPartition Labels
p3825
sg7
V\u4e2d\u7b49
p3826
sg9
V59.6%
p3827
sg11
V\u5212\u5206\u5b57\u6bcd\u533a\u95f4
p3828
sg13
Vpartition-labels
p3829
ssV761
p3830
(dp3831
g4
g3830
sg5
VSpecial Binary String
p3832
sg7
V\u56f0\u96be
p3833
sg9
V54.0%
p3834
sg11
V\u7279\u6b8a\u7684\u4e8c\u8fdb\u5236\u5e8f\u5217
p3835
sg13
Vspecial-binary-string
p3836
ssV766
p3837
(dp3838
g4
g3837
sg5
VToeplitz Matrix
p3839
sg7
V\u7b80\u5355
p3840
sg9
V51.9%
p3841
sg11
V\u6258\u666e\u5229\u8328\u77e9\u9635
p3842
sg13
Vtoeplitz-matrix
p3843
ssV767
p3844
(dp3845
g4
g3844
sg5
VReorganize String
p3846
sg7
V\u4e2d\u7b49
p3847
sg9
V26.3%
p3848
sg11
V\u91cd\u6784\u5b57\u7b26\u4e32
p3849
sg13
Vreorganize-string
p3850
ssV218
p3851
(dp3852
g4
g3851
sg5
VThe Skyline Problem
p3853
sg7
V\u56f0\u96be
p3854
sg9
V32.9%
p3855
sg11
V\u5929\u9645\u7ebf\u95ee\u9898
p3856
sg13
Vthe-skyline-problem
p3857
ssV219
p3858
(dp3859
g4
g3858
sg5
VContains Duplicate II
p3860
sg7
V\u7b80\u5355
p3861
sg9
V25.8%
p3862
sg11
V\u5b58\u5728\u91cd\u590d\u5143\u7d20 II
p3863
sg13
Vcontains-duplicate-ii
p3864
ssV289
p3865
(dp3866
g4
g3865
sg5
VGame of Life
p3867
sg7
V\u4e2d\u7b49
p3868
sg9
V47.8%
p3869
sg11
V\u751f\u547d\u6e38\u620f
p3870
sg13
Vgame-of-life
p3871
ssV4
(dp3872
g4
V4
sg5
VMedian of Two Sorted Arrays
p3873
sg7
V\u56f0\u96be
p3874
sg9
V30.4%
p3875
sg11
V\u4e24\u4e2a\u6392\u5e8f\u6570\u7ec4\u7684\u4e2d\u4f4d\u6570
p3876
sg13
Vmedian-of-two-sorted-arrays
p3877
ssV283
p3878
(dp3879
g4
g3878
sg5
VMove Zeroes
p3880
sg7
V\u7b80\u5355
p3881
sg9
V50.3%
p3882
sg11
V\u79fb\u52a8\u96f6
p3883
sg13
Vmove-zeroes
p3884
ssV282
p3885
(dp3886
g4
g3885
sg5
VExpression Add Operators
p3887
sg7
V\u56f0\u96be
p3888
sg9
V21.6%
p3889
sg11
V\u7ed9\u8868\u8fbe\u5f0f\u6dfb\u52a0\u8fd0\u7b97\u7b26
p3890
sg13
Vexpression-add-operators
p3891
ssV284
p3892
(dp3893
g4
g3892
sg5
VPeeking Iterator
p3894
sg7
V\u4e2d\u7b49
p3895
sg9
V47.6%
p3896
sg11
V\u9876\u7aef\u8fed\u4ee3\u5668
p3897
sg13
Vpeeking-iterator
p3898
ssV287
p3899
(dp3900
g4
g3899
sg5
VFind the Duplicate Number
p3901
sg7
V\u4e2d\u7b49
p3902
sg9
V52.7%
p3903
sg11
V\u5bfb\u627e\u91cd\u590d\u6570
p3904
sg13
Vfind-the-duplicate-number
p3905
ssV678
p3906
(dp3907
g4
g3906
sg5
VValid Parenthesis String
p3908
sg7
V\u4e2d\u7b49
p3909
sg9
V22.2%
p3910
sg11
V\u6709\u6548\u7684\u62ec\u53f7\u5b57\u7b26\u4e32
p3911
sg13
Vvalid-parenthesis-string
p3912
ssV679
p3913
(dp3914
g4
g3913
sg5
V24 Game
p3915
sg7
V\u56f0\u96be
p3916
sg9
V30.6%
p3917
sg11
V24\u70b9\u6e38\u620f
p3918
sg13
V24-game
p3919
ssV674
p3920
(dp3921
g4
g3920
sg5
VLongest Continuous Increasing Subsequence
p3922
sg7
V\u7b80\u5355
p3923
sg9
V32.1%
p3924
sg11
V\u6700\u957f\u8fde\u7eed\u9012\u589e\u5e8f\u5217
p3925
sg13
Vlongest-continuous-increasing-subsequence
p3926
ssV675
p3927
(dp3928
g4
g3927
sg5
VCut Off Trees for Golf Event
p3929
sg7
V\u56f0\u96be
p3930
sg9
V20.8%
p3931
sg11
V\u4e3a\u9ad8\u5c14\u592b\u6bd4\u8d5b\u780d\u6811
p3932
sg13
Vcut-off-trees-for-golf-event
p3933
ssV676
p3934
(dp3935
g4
g3934
sg5
VImplement Magic Dictionary
p3936
sg7
V\u4e2d\u7b49
p3937
sg9
V38.0%
p3938
sg11
V\u5b9e\u73b0\u4e00\u4e2a\u9b54\u6cd5\u5b57\u5178
p3939
sg13
Vimplement-magic-dictionary
p3940
ssV677
p3941
(dp3942
g4
g3941
sg5
VMap Sum Pairs
p3943
sg7
V\u4e2d\u7b49
p3944
sg9
V54.9%
p3945
sg11
V\u952e\u503c\u6620\u5c04
p3946
sg13
Vmap-sum-pairs
p3947
ssV670
p3948
(dp3949
g4
g3948
sg5
VMaximum Swap
p3950
sg7
V\u4e2d\u7b49
p3951
sg9
V31.4%
p3952
sg11
V\u6700\u5927\u4ea4\u6362
p3953
sg13
Vmaximum-swap
p3954
ssV671
p3955
(dp3956
g4
g3955
sg5
VSecond Minimum Node In a Binary Tree
p3957
sg7
V\u7b80\u5355
p3958
sg9
V40.6%
p3959
sg11
V\u4e8c\u53c9\u6811\u4e2d\u7b2c\u4e8c\u5c0f\u7684\u8282\u70b9
p3960
sg13
Vsecond-minimum-node-in-a-binary-tree
p3961
ssV672
p3962
(dp3963
g4
g3962
sg5
VBulb Switcher II
p3964
sg7
V\u4e2d\u7b49
p3965
sg9
V37.2%
p3966
sg11
V\u706f\u6ce1\u5f00\u5173 \u2161
p3967
sg13
Vbulb-switcher-ii
p3968
ssV673
p3969
(dp3970
g4
g3969
sg5
VNumber of Longest Increasing Subsequence
p3971
sg7
V\u4e2d\u7b49
p3972
sg9
V22.1%
p3973
sg11
V\u6700\u957f\u9012\u589e\u5b50\u5e8f\u5217\u7684\u4e2a\u6570
p3974
sg13
Vnumber-of-longest-increasing-subsequence
p3975
ssV263
p3976
(dp3977
g4
g3976
sg5
VUgly Number
p3978
sg7
V\u7b80\u5355
p3979
sg9
V38.8%
p3980
sg11
V\u4e11\u6570
p3981
sg13
Vugly-number
p3982
ssV262
p3983
(dp3984
g4
g3983
sg5
VTrips and Users
p3985
sg7
V\u56f0\u96be
p3986
sg9
V28.9%
p3987
sg11
V\u884c\u7a0b\u548c\u7528\u6237
p3988
sg13
Vtrips-and-users
p3989
ssV260
p3990
(dp3991
g4
g3990
sg5
VSingle Number III
p3992
sg7
V\u4e2d\u7b49
p3993
sg9
V56.6%
p3994
sg11
V\u53ea\u51fa\u73b0\u4e00\u6b21\u7684\u6570\u5b57 III
p3995
sg13
Vsingle-number-iii
p3996
ssV264
p3997
(dp3998
g4
g3997
sg5
VUgly Number II
p3999
sg7
V\u4e2d\u7b49
p4000
sg9
V27.9%
p4001
sg11
V\u4e11\u6570 II
p4002
sg13
Vugly-number-ii
p4003
ssV268
p4004
(dp4005
g4
g4004
sg5
VMissing Number
p4006
sg7
V\u7b80\u5355
p4007
sg9
V46.0%
p4008
sg11
V\u7f3a\u5931\u6570\u5b57
p4009
sg13
Vmissing-number
p4010
ssV59
p4011
(dp4012
g4
g4011
sg5
VSpiral Matrix II
p4013
sg7
V\u4e2d\u7b49
p4014
sg9
V63.3%
p4015
sg11
V\u87ba\u65cb\u77e9\u9635 II
p4016
sg13
Vspiral-matrix-ii
p4017
ssV58
p4018
(dp4019
g4
g4018
sg5
VLength of Last Word
p4020
sg7
V\u7b80\u5355
p4021
sg9
V27.8%
p4022
sg11
V\u6700\u540e\u4e00\u4e2a\u5355\u8bcd\u7684\u957f\u5ea6
p4023
sg13
Vlength-of-last-word
p4024
ssV55
p4025
(dp4026
g4
g4025
sg5
VJump Game
p4027
sg7
V\u4e2d\u7b49
p4028
sg9
V31.1%
p4029
sg11
V\u8df3\u8dc3\u6e38\u620f
p4030
sg13
Vjump-game
p4031
ssV54
p4032
(dp4033
g4
g4032
sg5
VSpiral Matrix
p4034
sg7
V\u4e2d\u7b49
p4035
sg9
V30.7%
p4036
sg11
V\u87ba\u65cb\u77e9\u9635
p4037
sg13
Vspiral-matrix
p4038
ssV57
p4039
(dp4040
g4
g4039
sg5
VInsert Interval
p4041
sg7
V\u56f0\u96be
p4042
sg9
V29.6%
p4043
sg11
V\u63d2\u5165\u533a\u95f4
p4044
sg13
Vinsert-interval
p4045
ssV56
p4046
(dp4047
g4
g4046
sg5
VMerge Intervals
p4048
sg7
V\u4e2d\u7b49
p4049
sg9
V31.0%
p4050
sg11
V\u5408\u5e76\u533a\u95f4
p4051
sg13
Vmerge-intervals
p4052
ssV51
p4053
(dp4054
g4
g4053
sg5
VN-Queens
p4055
sg7
V\u56f0\u96be
p4056
sg9
V53.0%
p4057
sg11
VN\u7687\u540e
p4058
sg13
Vn-queens
p4059
ssV50
p4060
(dp4061
g4
g4060
sg5
VPow(x, n)
p4062
sg7
V\u4e2d\u7b49
p4063
sg9
V26.3%
p4064
sg11
VPow(x, n)
p4065
sg13
Vpowx-n
p4066
ssV53
p4067
(dp4068
g4
g4067
sg5
VMaximum Subarray
p4069
sg7
V\u7b80\u5355
p4070
sg9
V36.3%
p4071
sg11
V\u6700\u5927\u5b50\u5e8f\u548c
p4072
sg13
Vmaximum-subarray
p4073
ssV52
p4074
(dp4075
g4
g4074
sg5
VN-Queens II
p4076
sg7
V\u56f0\u96be
p4077
sg9
V66.3%
p4078
sg11
VN\u7687\u540e II
p4079
sg13
Vn-queens-ii
p4080
ssV537
p4081
(dp4082
g4
g4081
sg5
VComplex Number Multiplication
p4083
sg7
V\u4e2d\u7b49
p4084
sg9
V60.0%
p4085
sg11
V\u590d\u6570\u4e58\u6cd5
p4086
sg13
Vcomplex-number-multiplication
p4087
ssV535
p4088
(dp4089
g4
g4088
sg5
VEncode and Decode TinyURL
p4090
sg7
V\u4e2d\u7b49
p4091
sg9
V69.2%
p4092
sg11
VTinyURL \u7684\u52a0\u5bc6\u4e0e\u89e3\u5bc6
p4093
sg13
Vencode-and-decode-tinyurl
p4094
ssV532
p4095
(dp4096
g4
g4095
sg5
VK-diff Pairs in an Array
p4097
sg7
V\u7b80\u5355
p4098
sg9
V24.9%
p4099
sg11
V\u6570\u7ec4\u4e2d\u7684K-diff\u6570\u5bf9
p4100
sg13
Vk-diff-pairs-in-an-array
p4101
ssV530
p4102
(dp4103
g4
g4102
sg5
VMinimum Absolute Difference in BST
p4104
sg7
V\u7b80\u5355
p4105
sg9
V46.2%
p4106
sg11
V\u4e8c\u53c9\u641c\u7d22\u6811\u7684\u6700\u5c0f\u7edd\u5bf9\u5dee
p4107
sg13
Vminimum-absolute-difference-in-bst
p4108
ssV539
p4109
(dp4110
g4
g4109
sg5
VMinimum Time Difference
p4111
sg7
V\u4e2d\u7b49
p4112
sg9
V31.2%
p4113
sg11
V\u6700\u5c0f\u65f6\u95f4\u5dee
p4114
sg13
Vminimum-time-difference
p4115
ssV538
p4116
(dp4117
g4
g4116
sg5
VConvert BST to Greater Tree
p4118
sg7
V\u7b80\u5355
p4119
sg9
V44.6%
p4120
sg11
V\u628a\u4e8c\u53c9\u641c\u7d22\u6811\u8f6c\u6362\u4e3a\u7d2f\u52a0\u6811
p4121
sg13
Vconvert-bst-to-greater-tree
p4122
ssV775
p4123
(dp4124
g4
g4123
sg5
VGlobal and Local Inversions
p4125
sg7
V\u4e2d\u7b49
p4126
sg9
V31.2%
p4127
sg11
V\u5168\u5c40\u5012\u7f6e\u4e0e\u5c40\u90e8\u5012\u7f6e
p4128
sg13
Vglobal-and-local-inversions
p4129
ssV777
p4130
(dp4131
g4
g4130
sg5
VSwap Adjacent in LR String
p4132
sg7
V\u4e2d\u7b49
p4133
sg9
V23.0%
p4134
sg11
V\u5728LR\u5b57\u7b26\u4e32\u4e2d\u4ea4\u6362\u76f8\u90bb\u5b57\u7b26
p4135
sg13
Vswap-adjacent-in-lr-string
p4136
ssV115
p4137
(dp4138
g4
g4137
sg5
VDistinct Subsequences
p4139
sg7
V\u56f0\u96be
p4140
sg9
V38.8%
p4141
sg11
V\u4e0d\u540c\u7684\u5b50\u5e8f\u5217
p4142
sg13
Vdistinct-subsequences
p4143
ssV114
p4144
(dp4145
g4
g4144
sg5
VFlatten Binary Tree to Linked List
p4146
sg7
V\u4e2d\u7b49
p4147
sg9
V50.0%
p4148
sg11
V\u4e8c\u53c9\u6811\u5c55\u5f00\u4e3a\u94fe\u8868
p4149
sg13
Vflatten-binary-tree-to-linked-list
p4150
ssV117
p4151
(dp4152
g4
g4151
sg5
VPopulating Next Right Pointers in Each Node II
p4153
sg7
V\u4e2d\u7b49
p4154
sg9
V30.0%
p4155
sg11
V\u586b\u5145\u540c\u4e00\u5c42\u7684\u5144\u5f1f\u8282\u70b9 II
p4156
sg13
Vpopulating-next-right-pointers-in-each-node-ii
p4157
ssV116
p4158
(dp4159
g4
g4158
sg5
VPopulating Next Right Pointers in Each Node
p4160
sg7
V\u4e2d\u7b49
p4161
sg9
V34.1%
p4162
sg11
V\u586b\u5145\u540c\u4e00\u5c42\u7684\u5144\u5f1f\u8282\u70b9
p4163
sg13
Vpopulating-next-right-pointers-in-each-node
p4164
ssV111
p4165
(dp4166
g4
g4165
sg5
VMinimum Depth of Binary Tree
p4167
sg7
V\u7b80\u5355
p4168
sg9
V33.4%
p4169
sg11
V\u4e8c\u53c9\u6811\u7684\u6700\u5c0f\u6df1\u5ea6
p4170
sg13
Vminimum-depth-of-binary-tree
p4171
ssV110
p4172
(dp4173
g4
g4172
sg5
VBalanced Binary Tree
p4174
sg7
V\u7b80\u5355
p4175
sg9
V42.9%
p4176
sg11
V\u5e73\u8861\u4e8c\u53c9\u6811
p4177
sg13
Vbalanced-binary-tree
p4178
ssV113
p4179
(dp4180
g4
g4179
sg5
VPath Sum II
p4181
sg7
V\u4e2d\u7b49
p4182
sg9
V43.8%
p4183
sg11
V\u8def\u5f84\u603b\u548c II
p4184
sg13
Vpath-sum-ii
p4185
ssV112
p4186
(dp4187
g4
g4186
sg5
VPath Sum
p4188
sg7
V\u7b80\u5355
p4189
sg9
V39.5%
p4190
sg11
V\u8def\u5f84\u603b\u548c
p4191
sg13
Vpath-sum
p4192
ssV771
p4193
(dp4194
g4
g4193
sg5
VJewels and Stones
p4195
sg7
V\u7b80\u5355
p4196
sg9
V76.7%
p4197
sg11
V\u5b9d\u77f3\u4e0e\u77f3\u5934
p4198
sg13
Vjewels-and-stones
p4199
ssV119
p4200
(dp4201
g4
g4200
sg5
VPascal's Triangle II
p4202
sg7
V\u7b80\u5355
p4203
sg9
V49.8%
p4204
sg11
V\u6768\u8f89\u4e09\u89d2 II
p4205
sg13
Vpascals-triangle-ii
p4206
ssV118
p4207
(dp4208
g4
g4207
sg5
VPascal's Triangle
p4209
sg7
V\u7b80\u5355
p4210
sg9
V53.6%
p4211
sg11
V\u6768\u8f89\u4e09\u89d2
p4212
sg13
Vpascals-triangle
p4213
ssV770
p4214
(dp4215
g4
g4214
sg5
VBasic Calculator IV
p4216
sg7
V\u56f0\u96be
p4217
sg9
V15.0%
p4218
sg11
VBasic Calculator IV
p4219
sg13
Vbasic-calculator-iv
p4220
ssV773
p4221
(dp4222
g4
g4221
sg5
VSliding Puzzle
p4223
sg7
V\u56f0\u96be
p4224
sg9
V59.6%
p4225
sg11
V\u6ed1\u52a8\u8c1c\u9898
p4226
sg13
Vsliding-puzzle
p4227
ssV429
p4228
(dp4229
g4
g4228
sg5
VN-ary Tree Level Order Traversal
p4230
sg7
V\u7b80\u5355
p4231
sg9
V47.0%
p4232
sg11
VN\u53c9\u6811\u7684\u5c42\u5e8f\u904d\u5386
p4233
sg13
Vn-ary-tree-level-order-traversal
p4234
ssV421
p4235
(dp4236
g4
g4235
sg5
VMaximum XOR of Two Numbers in an Array
p4237
sg7
V\u4e2d\u7b49
p4238
sg9
V48.2%
p4239
sg11
V\u6570\u7ec4\u4e2d\u4e24\u4e2a\u6570\u7684\u6700\u5927\u5f02\u6216\u503c
p4240
sg13
Vmaximum-xor-of-two-numbers-in-an-array
p4241
ssV420
p4242
(dp4243
g4
g4242
sg5
VStrong Password Checker
p4244
sg7
V\u56f0\u96be
p4245
sg9
V14.0%
p4246
sg11
V\u5f3a\u5bc6\u7801\u68c0\u9a8c\u5668
p4247
sg13
Vstrong-password-checker
p4248
ssV423
p4249
(dp4250
g4
g4249
sg5
VReconstruct Original Digits from English
p4251
sg7
V\u4e2d\u7b49
p4252
sg9
V45.7%
p4253
sg11
V\u4ece\u82f1\u6587\u4e2d\u91cd\u5efa\u6570\u5b57
p4254
sg13
Vreconstruct-original-digits-from-english
p4255
ssV424
p4256
(dp4257
g4
g4256
sg5
VLongest Repeating Character Replacement
p4258
sg7
V\u4e2d\u7b49
p4259
sg9
V19.1%
p4260
sg11
V\u66ff\u6362\u540e\u7684\u6700\u957f\u91cd\u590d\u5b57\u7b26
p4261
sg13
Vlongest-repeating-character-replacement
p4262
ssV427
p4263
(dp4264
g4
g4263
sg5
VConstruct Quad Tree
p4265
sg7
V\u7b80\u5355
p4266
sg9
V47.6%
p4267
sg11
V\u5efa\u7acb\u56db\u53c9\u6811
p4268
sg13
Vconstruct-quad-tree
p4269
ssV309
p4270
(dp4271
g4
g4270
sg5
VBest Time to Buy and Sell Stock with Cooldown
p4272
sg7
V\u4e2d\u7b49
p4273
sg9
V40.8%
p4274
sg11
V\u6700\u4f73\u4e70\u5356\u80a1\u7968\u65f6\u673a\u542b\u51b7\u51bb\u671f
p4275
sg13
Vbest-time-to-buy-and-sell-stock-with-cooldown
p4276
ssV855
p4277
(dp4278
g4
g4277
sg5
VExam Room
p4279
sg7
V\u4e2d\u7b49
p4280
sg9
V20.8%
p4281
sg11
V\u8003\u573a\u5c31\u5ea7
p4282
sg13
Vexam-room
p4283
ssV300
p4284
(dp4285
g4
g4284
sg5
VLongest Increasing Subsequence
p4286
sg7
V\u4e2d\u7b49
p4287
sg9
V34.8%
p4288
sg11
V\u6700\u957f\u4e0a\u5347\u5b50\u5e8f\u5217
p4289
sg13
Vlongest-increasing-subsequence
p4290
ssV301
p4291
(dp4292
g4
g4291
sg5
VRemove Invalid Parentheses
p4293
sg7
V\u56f0\u96be
p4294
sg9
V31.6%
p4295
sg11
V\u5220\u9664\u65e0\u6548\u7684\u62ec\u53f7
p4296
sg13
Vremove-invalid-parentheses
p4297
ssV303
p4298
(dp4299
g4
g4298
sg5
VRange Sum Query - Immutable
p4300
sg7
V\u7b80\u5355
p4301
sg9
V46.5%
p4302
sg11
V\u533a\u57df\u548c\u68c0\u7d22 - \u6570\u7ec4\u4e0d\u53ef\u53d8
p4303
sg13
Vrange-sum-query-immutable
p4304
ssV304
p4305
(dp4306
g4
g4305
sg5
VRange Sum Query 2D - Immutable
p4307
sg7
V\u4e2d\u7b49
p4308
sg9
V35.0%
p4309
sg11
V\u4e8c\u7ef4\u533a\u57df\u548c\u68c0\u7d22 - \u77e9\u9635\u4e0d\u53ef\u53d8
p4310
sg13
Vrange-sum-query-2d-immutable
p4311
ssV306
p4312
(dp4313
g4
g4312
sg5
VAdditive Number
p4314
sg7
V\u4e2d\u7b49
p4315
sg9
V27.1%
p4316
sg11
V\u7d2f\u52a0\u6570
p4317
sg13
Vadditive-number
p4318
ssV307
p4319
(dp4320
g4
g4319
sg5
VRange Sum Query - Mutable
p4321
sg7
V\u4e2d\u7b49
p4322
sg9
V38.4%
p4323
sg11
V\u533a\u57df\u548c\u68c0\u7d22 - \u6570\u7ec4\u53ef\u4fee\u6539
p4324
sg13
Vrange-sum-query-mutable
p4325
ssV825
p4326
(dp4327
g4
g4326
sg5
VFriends Of Appropriate Ages
p4328
sg7
V\u4e2d\u7b49
p4329
sg9
V22.5%
p4330
sg11
V\u9002\u9f84\u7684\u670b\u53cb
p4331
sg13
Vfriends-of-appropriate-ages
p4332
ssV827
p4333
(dp4334
g4
g4333
sg5
VMaking A Large Island
p4335
sg7
V\u56f0\u96be
p4336
sg9
V22.9%
p4337
sg11
V\u6700\u5927\u4eba\u5de5\u5c9b
p4338
sg13
Vmaking-a-large-island
p4339
ssV847
p4340
(dp4341
g4
g4340
sg5
VShortest Path Visiting All Nodes
p4342
sg7
V\u56f0\u96be
p4343
sg9
V32.6%
p4344
sg11
V\u8bbf\u95ee\u6240\u6709\u8282\u70b9\u7684\u6700\u77ed\u8def\u5f84
p4345
sg13
Vshortest-path-visiting-all-nodes
p4346
ssV846
p4347
(dp4348
g4
g4347
sg5
VHand of Straights
p4349
sg7
V\u4e2d\u7b49
p4350
sg9
V35.6%
p4351
sg11
V\u4e00\u624b\u987a\u5b50
p4352
sg13
Vhand-of-straights
p4353
ssV845
p4354
(dp4355
g4
g4354
sg5
VLongest Mountain in Array
p4356
sg7
V\u4e2d\u7b49
p4357
sg9
V23.6%
p4358
sg11
V\u6570\u7ec4\u4e2d\u7684\u6700\u957f\u5c71\u8109
p4359
sg13
Vlongest-mountain-in-array
p4360
ssV826
p4361
(dp4362
g4
g4361
sg5
VMost Profit Assigning Work
p4363
sg7
V\u4e2d\u7b49
p4364
sg9
V28.3%
p4365
sg11
V\u5b89\u6392\u5de5\u4f5c\u4ee5\u8fbe\u5230\u6700\u5927\u6536\u76ca
p4366
sg13
Vmost-profit-assigning-work
p4367
ssV843
p4368
(dp4369
g4
g4368
sg5
VGuess the Word
p4370
sg7
V\u56f0\u96be
p4371
sg9
V25.5%
p4372
sg11
V\u731c\u731c\u8fd9\u4e2a\u5355\u8bcd
p4373
sg13
Vguess-the-word
p4374
ssV842
p4375
(dp4376
g4
g4375
sg5
VSplit Array into Fibonacci Sequence
p4377
sg7
V\u4e2d\u7b49
p4378
sg9
V27.2%
p4379
sg11
V\u5c06\u6570\u7ec4\u62c6\u5206\u6210\u6590\u6ce2\u90a3\u5951\u5e8f\u5217
p4380
sg13
Vsplit-array-into-fibonacci-sequence
p4381
ssV841
p4382
(dp4383
g4
g4382
sg5
VKeys and Rooms
p4384
sg7
V\u4e2d\u7b49
p4385
sg9
V47.5%
p4386
sg11
V\u94a5\u5319\u548c\u623f\u95f4
p4387
sg13
Vkeys-and-rooms
p4388
ssV840
p4389
(dp4390
g4
g4389
sg5
VMagic Squares In Grid
p4391
sg7
V\u7b80\u5355
p4392
sg9
V25.6%
p4393
sg11
V\u77e9\u9635\u4e2d\u7684\u5e7b\u65b9
p4394
sg13
Vmagic-squares-in-grid
p4395
ssV821
p4396
(dp4397
g4
g4396
sg5
VShortest Distance to a Character
p4398
sg7
V\u7b80\u5355
p4399
sg9
V57.7%
p4400
sg11
V\u5b57\u7b26\u7684\u6700\u77ed\u8ddd\u79bb
p4401
sg13
Vshortest-distance-to-a-character
p4402
ssV853
p4403
(dp4404
g4
g4403
sg5
VCar Fleet
p4405
sg7
V\u4e2d\u7b49
p4406
sg9
V21.2%
p4407
sg11
V\u8f66\u961f
p4408
sg13
Vcar-fleet
p4409
ssV849
p4410
(dp4411
g4
g4410
sg5
VMaximize Distance to Closest Person
p4412
sg7
V\u7b80\u5355
p4413
sg9
V30.3%
p4414
sg11
V\u5230\u6700\u8fd1\u7684\u4eba\u7684\u6700\u5927\u8ddd\u79bb
p4415
sg13
Vmaximize-distance-to-closest-person
p4416
ssV820
p4417
(dp4418
g4
g4417
sg5
VShort Encoding of Words
p4419
sg7
V\u4e2d\u7b49
p4420
sg9
V29.9%
p4421
sg11
V\u5355\u8bcd\u7684\u538b\u7f29\u7f16\u7801
p4422
sg13
Vshort-encoding-of-words
p4423
ssV823
p4424
(dp4425
g4
g4424
sg5
VBinary Trees With Factors
p4426
sg7
V\u4e2d\u7b49
p4427
sg9
V37.7%
p4428
sg11
V\u5e26\u56e0\u5b50\u7684\u4e8c\u53c9\u6811
p4429
sg13
Vbinary-trees-with-factors
p4430
ssV822
p4431
(dp4432
g4
g4431
sg5
VCard Flipping Game
p4433
sg7
V\u4e2d\u7b49
p4434
sg9
V38.2%
p4435
sg11
VCard Flipping Game
p4436
sg13
Vcard-flipping-game
p4437
ssV753
p4438
(dp4439
g4
g4438
sg5
VCracking the Safe
p4440
sg7
V\u56f0\u96be
p4441
sg9
V31.8%
p4442
sg11
VCracking the Safe
p4443
sg13
Vcracking-the-safe
p4444
ssV752
p4445
(dp4446
g4
g4445
sg5
VOpen the Lock
p4447
sg7
V\u4e2d\u7b49
p4448
sg9
V36.0%
p4449
sg11
V\u6253\u5f00\u8f6c\u76d8\u9501
p4450
sg13
Vopen-the-lock
p4451
ssV757
p4452
(dp4453
g4
g4452
sg5
VSet Intersection Size At Least Two
p4454
sg7
V\u56f0\u96be
p4455
sg9
V30.3%
p4456
sg11
V \u8bbe\u7f6e\u4ea4\u96c6\u5927\u5c0f\u81f3\u5c11\u4e3a2
p4457
sg13
Vset-intersection-size-at-least-two
p4458
ssV756
p4459
(dp4460
g4
g4459
sg5
VPyramid Transition Matrix
p4461
sg7
V\u4e2d\u7b49
p4462
sg9
V36.4%
p4463
sg11
V\u91d1\u5b57\u5854\u8f6c\u6362\u77e9\u9635
p4464
sg13
Vpyramid-transition-matrix
p4465
ssV754
p4466
(dp4467
g4
g4466
sg5
VReach a Number
p4468
sg7
V\u4e2d\u7b49
p4469
sg9
V29.1%
p4470
sg11
V\u5230\u8fbe\u7ec8\u70b9\u6570\u5b57
p4471
sg13
Vreach-a-number
p4472
ssV560
p4473
(dp4474
g4
g4473
sg5
VSubarray Sum Equals K
p4475
sg7
V\u4e2d\u7b49
p4476
sg9
V30.4%
p4477
sg11
V\u548c\u4e3aK\u7684\u5b50\u6570\u7ec4
p4478
sg13
Vsubarray-sum-equals-k
p4479
ssV561
p4480
(dp4481
g4
g4480
sg5
VArray Partition I
p4482
sg7
V\u7b80\u5355
p4483
sg9
V56.3%
p4484
sg11
V\u6570\u7ec4\u62c6\u5206 I
p4485
sg13
Varray-partition-i
p4486
ssV563
p4487
(dp4488
g4
g4487
sg5
VBinary Tree Tilt
p4489
sg7
V\u7b80\u5355
p4490
sg9
V44.1%
p4491
sg11
V\u4e8c\u53c9\u6811\u7684\u5761\u5ea6
p4492
sg13
Vbinary-tree-tilt
p4493
ssV564
p4494
(dp4495
g4
g4494
sg5
VFind the Closest Palindrome
p4496
sg7
V\u56f0\u96be
p4497
sg9
V8.1%
p4498
sg11
V\u5bfb\u627e\u6700\u8fd1\u7684\u56de\u6587\u6570
p4499
sg13
Vfind-the-closest-palindrome
p4500
ssV565
p4501
(dp4502
g4
g4501
sg5
VArray Nesting
p4503
sg7
V\u4e2d\u7b49
p4504
sg9
V37.7%
p4505
sg11
V\u6570\u7ec4\u5d4c\u5957
p4506
sg13
Varray-nesting
p4507
ssV566
p4508
(dp4509
g4
g4508
sg5
VReshape the Matrix
p4510
sg7
V\u7b80\u5355
p4511
sg9
V53.6%
p4512
sg11
V\u91cd\u5851\u77e9\u9635
p4513
sg13
Vreshape-the-matrix
p4514
ssV567
p4515
(dp4516
g4
g4515
sg5
VPermutation in String
p4517
sg7
V\u4e2d\u7b49
p4518
sg9
V29.2%
p4519
sg11
V\u5b57\u7b26\u4e32\u7684\u6392\u5217
p4520
sg13
Vpermutation-in-string
p4521
ssV739
p4522
(dp4523
g4
g4522
sg5
VDaily Temperatures
p4524
sg7
V\u4e2d\u7b49
p4525
sg9
V41.5%
p4526
sg11
V\u6bcf\u65e5\u6e29\u5ea6
p4527
sg13
Vdaily-temperatures
p4528
ssV229
p4529
(dp4530
g4
g4529
sg5
VMajority Element II
p4531
sg7
V\u4e2d\u7b49
p4532
sg9
V32.8%
p4533
sg11
V\u6c42\u4f17\u6570 II
p4534
sg13
Vmajority-element-ii
p4535
ssV228
p4536
(dp4537
g4
g4536
sg5
VSummary Ranges
p4538
sg7
V\u4e2d\u7b49
p4539
sg9
V42.9%
p4540
sg11
V\u6c47\u603b\u533a\u95f4
p4541
sg13
Vsummary-ranges
p4542
ssV227
p4543
(dp4544
g4
g4543
sg5
VBasic Calculator II
p4545
sg7
V\u4e2d\u7b49
p4546
sg9
V29.9%
p4547
sg11
V\u57fa\u672c\u8ba1\u7b97\u5668 II
p4548
sg13
Vbasic-calculator-ii
p4549
ssV226
p4550
(dp4551
g4
g4550
sg5
VInvert Binary Tree
p4552
sg7
V\u7b80\u5355
p4553
sg9
V63.4%
p4554
sg11
V\u7ffb\u8f6c\u4e8c\u53c9\u6811
p4555
sg13
Vinvert-binary-tree
p4556
ssV225
p4557
(dp4558
g4
g4557
sg5
VImplement Stack using Queues
p4559
sg7
V\u7b80\u5355
p4560
sg9
V45.8%
p4561
sg11
V\u7528\u961f\u5217\u5b9e\u73b0\u6808
p4562
sg13
Vimplement-stack-using-queues
p4563
ssV224
p4564
(dp4565
g4
g4564
sg5
VBasic Calculator
p4566
sg7
V\u56f0\u96be
p4567
sg9
V27.3%
p4568
sg11
V\u57fa\u672c\u8ba1\u7b97\u5668
p4569
sg13
Vbasic-calculator
p4570
ssV223
p4571
(dp4572
g4
g4571
sg5
VRectangle Area
p4573
sg7
V\u4e2d\u7b49
p4574
sg9
V35.9%
p4575
sg11
V\u77e9\u5f62\u9762\u79ef
p4576
sg13
Vrectangle-area
p4577
ssV222
p4578
(dp4579
g4
g4578
sg5
VCount Complete Tree Nodes
p4580
sg7
V\u4e2d\u7b49
p4581
sg9
V29.1%
p4582
sg11
V\u5b8c\u5168\u4e8c\u53c9\u6811\u7684\u8282\u70b9\u4e2a\u6570
p4583
sg13
Vcount-complete-tree-nodes
p4584
ssV221
p4585
(dp4586
g4
g4585
sg5
VMaximal Square
p4587
sg7
V\u4e2d\u7b49
p4588
sg9
V30.9%
p4589
sg11
V\u6700\u5927\u6b63\u65b9\u5f62
p4590
sg13
Vmaximal-square
p4591
ssV220
p4592
(dp4593
g4
g4592
sg5
VContains Duplicate III
p4594
sg7
V\u4e2d\u7b49
p4595
sg9
V16.9%
p4596
sg11
V\u5b58\u5728\u91cd\u590d\u5143\u7d20 III
p4597
sg13
Vcontains-duplicate-iii
p4598
ssV391
p4599
(dp4600
g4
g4599
sg5
VPerfect Rectangle
p4601
sg7
V\u56f0\u96be
p4602
sg9
V11.6%
p4603
sg11
V\u5b8c\u7f8e\u77e9\u5f62
p4604
sg13
Vperfect-rectangle
p4605
ssV726
p4606
(dp4607
g4
g4606
sg5
VNumber of Atoms
p4608
sg7
V\u56f0\u96be
p4609
sg9
V39.4%
p4610
sg11
V\u539f\u5b50\u7684\u6570\u91cf
p4611
sg13
Vnumber-of-atoms
p4612
ssV724
p4613
(dp4614
g4
g4613
sg5
VFind Pivot Index
p4615
sg7
V\u7b80\u5355
p4616
sg9
V30.0%
p4617
sg11
V\u5bfb\u627e\u6570\u7ec4\u7684\u4e2d\u5fc3\u7d22\u5f15
p4618
sg13
Vfind-pivot-index
p4619
ssV390
p4620
(dp4621
g4
g4620
sg5
VElimination Game
p4622
sg7
V\u4e2d\u7b49
p4623
sg9
V30.4%
p4624
sg11
V\u6d88\u9664\u6e38\u620f
p4625
sg13
Velimination-game
p4626
ssV722
p4627
(dp4628
g4
g4627
sg5
VRemove Comments
p4629
sg7
V\u4e2d\u7b49
p4630
sg9
V15.7%
p4631
sg11
V\u5220\u9664\u6ce8\u91ca
p4632
sg13
Vremove-comments
p4633
ssV720
p4634
(dp4635
g4
g4634
sg5
VLongest Word in Dictionary
p4636
sg7
V\u7b80\u5355
p4637
sg9
V35.8%
p4638
sg11
V\u8bcd\u5178\u4e2d\u6700\u957f\u7684\u5355\u8bcd
p4639
sg13
Vlongest-word-in-dictionary
p4640
ssV721
p4641
(dp4642
g4
g4641
sg5
VAccounts Merge
p4643
sg7
V\u4e2d\u7b49
p4644
sg9
V20.6%
p4645
sg11
V\u8d26\u6237\u5408\u5e76
p4646
sg13
Vaccounts-merge
p4647
ssV728
p4648
(dp4649
g4
g4648
sg5
VSelf Dividing Numbers
p4650
sg7
V\u7b80\u5355
p4651
sg9
V62.5%
p4652
sg11
V\u81ea\u9664\u6570
p4653
sg13
Vself-dividing-numbers
p4654
ssV729
p4655
(dp4656
g4
g4655
sg5
VMy Calendar I
p4657
sg7
V\u4e2d\u7b49
p4658
sg9
V37.8%
p4659
sg11
V\u6211\u7684\u65e5\u7a0b\u5b89\u6392\u8868 I
p4660
sg13
Vmy-calendar-i
p4661
ssV151
p4662
(dp4663
g4
g4662
sg5
VReverse Words in a String
p4664
sg7
V\u4e2d\u7b49
p4665
sg9
V15.6%
p4666
sg11
V\u7ffb\u8f6c\u5b57\u7b26\u4e32\u91cc\u7684\u5355\u8bcd
p4667
sg13
Vreverse-words-in-a-string
p4668
ssV150
p4669
(dp4670
g4
g4669
sg5
VEvaluate Reverse Polish Notation
p4671
sg7
V\u4e2d\u7b49
p4672
sg9
V37.0%
p4673
sg11
V\u9006\u6ce2\u5170\u8868\u8fbe\u5f0f\u6c42\u503c
p4674
sg13
Vevaluate-reverse-polish-notation
p4675
ssV153
p4676
(dp4677
g4
g4676
sg5
VFind Minimum in Rotated Sorted Array
p4678
sg7
V\u4e2d\u7b49
p4679
sg9
V44.4%
p4680
sg11
V\u5bfb\u627e\u65cb\u8f6c\u6392\u5e8f\u6570\u7ec4\u4e2d\u7684\u6700\u5c0f\u503c
p4681
sg13
Vfind-minimum-in-rotated-sorted-array
p4682
ssV152
p4683
(dp4684
g4
g4683
sg5
VMaximum Product Subarray
p4685
sg7
V\u4e2d\u7b49
p4686
sg9
V26.8%
p4687
sg11
V\u4e58\u79ef\u6700\u5927\u5b50\u5e8f\u5217
p4688
sg13
Vmaximum-product-subarray
p4689
ssV155
p4690
(dp4691
g4
g4690
sg5
VMin Stack
p4692
sg7
V\u7b80\u5355
p4693
sg9
V43.6%
p4694
sg11
V\u6700\u5c0f\u6808
p4695
sg13
Vmin-stack
p4696
ssV154
p4697
(dp4698
g4
g4697
sg5
VFind Minimum in Rotated Sorted Array II
p4699
sg7
V\u56f0\u96be
p4700
sg9
V44.1%
p4701
sg11
V\u5bfb\u627e\u65cb\u8f6c\u6392\u5e8f\u6570\u7ec4\u4e2d\u7684\u6700\u5c0f\u503c II
p4702
sg13
Vfind-minimum-in-rotated-sorted-array-ii
p4703
ssV609
p4704
(dp4705
g4
g4704
sg5
VFind Duplicate File in System
p4706
sg7
V\u4e2d\u7b49
p4707
sg9
V50.6%
p4708
sg11
VFind Duplicate File in System
p4709
sg13
Vfind-duplicate-file-in-system
p4710
ssV80
p4711
(dp4712
g4
g4711
sg5
VRemove Duplicates from Sorted Array II
p4713
sg7
V\u4e2d\u7b49
p4714
sg9
V43.2%
p4715
sg11
V\u5220\u9664\u6392\u5e8f\u6570\u7ec4\u4e2d\u7684\u91cd\u590d\u9879 II
p4716
sg13
Vremove-duplicates-from-sorted-array-ii
p4717
ssV749
p4718
(dp4719
g4
g4718
sg5
VContain Virus
p4720
sg7
V\u56f0\u96be
p4721
sg9
V36.4%
p4722
sg11
VContain Virus
p4723
sg13
Vcontain-virus
p4724
ssV81
p4725
(dp4726
g4
g4725
sg5
VSearch in Rotated Sorted Array II
p4727
sg7
V\u4e2d\u7b49
p4728
sg9
V29.6%
p4729
sg11
V\u641c\u7d22\u65cb\u8f6c\u6392\u5e8f\u6570\u7ec4 II
p4730
sg13
Vsearch-in-rotated-sorted-array-ii
p4731
ssV48
p4732
(dp4733
g4
g4732
sg5
VRotate Image
p4734
sg7
V\u4e2d\u7b49
p4735
sg9
V56.4%
p4736
sg11
V\u65cb\u8f6c\u56fe\u50cf
p4737
sg13
Vrotate-image
p4738
ssV49
p4739
(dp4740
g4
g4739
sg5
VGroup Anagrams
p4741
sg7
V\u4e2d\u7b49
p4742
sg9
V46.7%
p4743
sg11
V\u5b57\u6bcd\u5f02\u4f4d\u8bcd\u5206\u7ec4
p4744
sg13
Vgroup-anagrams
p4745
ssV46
p4746
(dp4747
g4
g4746
sg5
VPermutations
p4748
sg7
V\u4e2d\u7b49
p4749
sg9
V62.0%
p4750
sg11
V\u5168\u6392\u5217
p4751
sg13
Vpermutations
p4752
ssV47
p4753
(dp4754
g4
g4753
sg5
VPermutations II
p4755
sg7
V\u4e2d\u7b49
p4756
sg9
V43.5%
p4757
sg11
V\u5168\u6392\u5217 II
p4758
sg13
Vpermutations-ii
p4759
ssV44
p4760
(dp4761
g4
g4760
sg5
VWildcard Matching
p4762
sg7
V\u56f0\u96be
p4763
sg9
V17.2%
p4764
sg11
V\u901a\u914d\u7b26\u5339\u914d
p4765
sg13
Vwildcard-matching
p4766
ssV45
p4767
(dp4768
g4
g4767
sg5
VJump Game II
p4769
sg7
V\u56f0\u96be
p4770
sg9
V24.6%
p4771
sg11
V\u8df3\u8dc3\u6e38\u620f II
p4772
sg13
Vjump-game-ii
p4773
ssV42
p4774
(dp4775
g4
g4774
sg5
VTrapping Rain Water
p4776
sg7
V\u56f0\u96be
p4777
sg9
V35.0%
p4778
sg11
V\u63a5\u96e8\u6c34
p4779
sg13
Vtrapping-rain-water
p4780
ssV43
p4781
(dp4782
g4
g4781
sg5
VMultiply Strings
p4783
sg7
V\u4e2d\u7b49
p4784
sg9
V32.4%
p4785
sg11
V\u5b57\u7b26\u4e32\u76f8\u4e58
p4786
sg13
Vmultiply-strings
p4787
ssV40
p4788
(dp4789
g4
g4788
sg5
VCombination Sum II
p4790
sg7
V\u4e2d\u7b49
p4791
sg9
V49.2%
p4792
sg11
V\u7ec4\u5408\u603b\u548c II
p4793
sg13
Vcombination-sum-ii
p4794
ssV41
p4795
(dp4796
g4
g4795
sg5
VFirst Missing Positive
p4797
sg7
V\u56f0\u96be
p4798
sg9
V31.6%
p4799
sg11
V\u7f3a\u5931\u7684\u7b2c\u4e00\u4e2a\u6b63\u6570
p4800
sg13
Vfirst-missing-positive
p4801
ssV5
(dp4802
g4
V5
sg5
VLongest Palindromic Substring
p4803
sg7
V\u4e2d\u7b49
p4804
sg9
V23.4%
p4805
sg11
V\u6700\u957f\u56de\u6587\u5b50\u4e32
p4806
sg13
Vlongest-palindromic-substring
p4807
ssV639
p4808
(dp4809
g4
g4808
sg5
VDecode Ways II
p4810
sg7
V\u56f0\u96be
p4811
sg9
V25.8%
p4812
sg11
V\u89e3\u7801\u65b9\u6cd5 2
p4813
sg13
Vdecode-ways-ii
p4814
ssV488
p4815
(dp4816
g4
g4815
sg5
VZuma Game
p4817
sg7
V\u56f0\u96be
p4818
sg9
V34.5%
p4819
sg11
V\u7956\u739b\u6e38\u620f
p4820
sg13
Vzuma-game
p4821
ssV486
p4822
(dp4823
g4
g4822
sg5
VPredict the Winner
p4824
sg7
V\u4e2d\u7b49
p4825
sg9
V40.2%
p4826
sg11
V\u9884\u6d4b\u8d62\u5bb6
p4827
sg13
Vpredict-the-winner
p4828
ssV485
p4829
(dp4830
g4
g4829
sg5
VMax Consecutive Ones
p4831
sg7
V\u7b80\u5355
p4832
sg9
V47.9%
p4833
sg11
V\u6700\u5927\u8fde\u7eed1\u7684\u4e2a\u6570
p4834
sg13
Vmax-consecutive-ones
p4835
ssV483
p4836
(dp4837
g4
g4836
sg5
VSmallest Good Base
p4838
sg7
V\u56f0\u96be
p4839
sg9
V33.3%
p4840
sg11
VSmallest Good Base
p4841
sg13
Vsmallest-good-base
p4842
ssV482
p4843
(dp4844
g4
g4843
sg5
VLicense Key Formatting
p4845
sg7
V\u7b80\u5355
p4846
sg9
V31.2%
p4847
sg11
V\u5bc6\u94a5\u683c\u5f0f\u5316
p4848
sg13
Vlicense-key-formatting
p4849
ssV481
p4850
(dp4851
g4
g4850
sg5
VMagical String
p4852
sg7
V\u4e2d\u7b49
p4853
sg9
V39.3%
p4854
sg11
V\u795e\u5947\u5b57\u7b26\u4e32
p4855
sg13
Vmagical-string
p4856
ssV480
p4857
(dp4858
g4
g4857
sg5
VSliding Window Median
p4859
sg7
V\u56f0\u96be
p4860
sg9
V16.5%
p4861
sg11
V\u6ed1\u52a8\u7a97\u53e3\u4e2d\u4f4d\u6570
p4862
sg13
Vsliding-window-median
p4863
ssV472
p4864
(dp4865
g4
g4864
sg5
VConcatenated Words
p4866
sg7
V\u56f0\u96be
p4867
sg9
V31.4%
p4868
sg11
V\u8fde\u63a5\u8bcd
p4869
sg13
Vconcatenated-words
p4870
ssV473
p4871
(dp4872
g4
g4871
sg5
VMatchsticks to Square
p4873
sg7
V\u4e2d\u7b49
p4874
sg9
V23.7%
p4875
sg11
V\u706b\u67f4\u62fc\u6b63\u65b9\u5f62
p4876
sg13
Vmatchsticks-to-square
p4877
ssV470
p4878
(dp4879
g4
g4878
sg5
VImplement Rand10() Using Rand7()
p4880
sg7
V\u4e2d\u7b49
p4881
sg9
V35.2%
p4882
sg11
V\u7528 Rand7() \u5b9e\u73b0 Rand10()
p4883
sg13
Vimplement-rand10-using-rand7
p4884
ssV476
p4885
(dp4886
g4
g4885
sg5
VNumber Complement
p4887
sg7
V\u7b80\u5355
p4888
sg9
V63.3%
p4889
sg11
V\u6570\u5b57\u7684\u8865\u6570
p4890
sg13
Vnumber-complement
p4891
ssV477
p4892
(dp4893
g4
g4892
sg5
VTotal Hamming Distance
p4894
sg7
V\u4e2d\u7b49
p4895
sg9
V35.7%
p4896
sg11
V\u6c49\u660e\u8ddd\u79bb\u603b\u548c
p4897
sg13
Vtotal-hamming-distance
p4898
ssV474
p4899
(dp4900
g4
g4899
sg5
VOnes and Zeroes
p4901
sg7
V\u4e2d\u7b49
p4902
sg9
V33.2%
p4903
sg11
V\u4e00\u548c\u96f6
p4904
sg13
Vones-and-zeroes
p4905
ssV475
p4906
(dp4907
g4
g4906
sg5
VHeaters
p4908
sg7
V\u7b80\u5355
p4909
sg9
V22.5%
p4910
sg11
V\u4f9b\u6696\u5668
p4911
sg13
Vheaters
p4912
ssV479
p4913
(dp4914
g4
g4913
sg5
VLargest Palindrome Product
p4915
sg7
V\u7b80\u5355
p4916
sg9
V20.8%
p4917
sg11
V\u6700\u5927\u56de\u6587\u6570\u4e58\u79ef
p4918
sg13
Vlargest-palindrome-product
p4919
ss.